
mudule_test.elf:     file format elf32-avr

Sections:
Idx Name          Size      VMA       LMA       File off  Algn
  0 .data         00000010  00800100  000010b8  0000114c  2**0
                  CONTENTS, ALLOC, LOAD, DATA
  1 .text         000010b8  00000000  00000000  00000094  2**1
                  CONTENTS, ALLOC, LOAD, READONLY, CODE
  2 .bss          00000011  00800110  00800110  0000115c  2**0
                  ALLOC
  3 .debug_aranges 000000a0  00000000  00000000  0000115c  2**0
                  CONTENTS, READONLY, DEBUGGING
  4 .debug_pubnames 00000263  00000000  00000000  000011fc  2**0
                  CONTENTS, READONLY, DEBUGGING
  5 .debug_info   00000b90  00000000  00000000  0000145f  2**0
                  CONTENTS, READONLY, DEBUGGING
  6 .debug_abbrev 0000042b  00000000  00000000  00001fef  2**0
                  CONTENTS, READONLY, DEBUGGING
  7 .debug_line   00000ad6  00000000  00000000  0000241a  2**0
                  CONTENTS, READONLY, DEBUGGING
  8 .debug_frame  00000240  00000000  00000000  00002ef0  2**2
                  CONTENTS, READONLY, DEBUGGING
  9 .debug_str    000006ab  00000000  00000000  00003130  2**0
                  CONTENTS, READONLY, DEBUGGING

Disassembly of section .text:

00000000 <__vectors>:
       0:	0c 94 46 00 	jmp	0x8c	; 0x8c <__ctors_end>
       4:	0c 94 65 00 	jmp	0xca	; 0xca <__bad_interrupt>
       8:	0c 94 65 00 	jmp	0xca	; 0xca <__bad_interrupt>
       c:	0c 94 65 00 	jmp	0xca	; 0xca <__bad_interrupt>
      10:	0c 94 65 00 	jmp	0xca	; 0xca <__bad_interrupt>
      14:	0c 94 65 00 	jmp	0xca	; 0xca <__bad_interrupt>
      18:	0c 94 65 00 	jmp	0xca	; 0xca <__bad_interrupt>
      1c:	0c 94 65 00 	jmp	0xca	; 0xca <__bad_interrupt>
      20:	0c 94 65 00 	jmp	0xca	; 0xca <__bad_interrupt>
      24:	0c 94 65 00 	jmp	0xca	; 0xca <__bad_interrupt>
      28:	0c 94 65 00 	jmp	0xca	; 0xca <__bad_interrupt>
      2c:	0c 94 65 00 	jmp	0xca	; 0xca <__bad_interrupt>
      30:	0c 94 65 00 	jmp	0xca	; 0xca <__bad_interrupt>
      34:	0c 94 65 00 	jmp	0xca	; 0xca <__bad_interrupt>
      38:	0c 94 65 00 	jmp	0xca	; 0xca <__bad_interrupt>
      3c:	0c 94 65 00 	jmp	0xca	; 0xca <__bad_interrupt>
      40:	0c 94 65 00 	jmp	0xca	; 0xca <__bad_interrupt>
      44:	0c 94 65 00 	jmp	0xca	; 0xca <__bad_interrupt>
      48:	0c 94 65 00 	jmp	0xca	; 0xca <__bad_interrupt>
      4c:	0c 94 65 00 	jmp	0xca	; 0xca <__bad_interrupt>
      50:	0c 94 99 05 	jmp	0xb32	; 0xb32 <__vector_20>
      54:	0c 94 33 05 	jmp	0xa66	; 0xa66 <__vector_21>
      58:	0c 94 cd 04 	jmp	0x99a	; 0x99a <__vector_22>
      5c:	0c 94 65 00 	jmp	0xca	; 0xca <__bad_interrupt>
      60:	0c 94 65 00 	jmp	0xca	; 0xca <__bad_interrupt>
      64:	0c 94 65 00 	jmp	0xca	; 0xca <__bad_interrupt>
      68:	0c 94 65 00 	jmp	0xca	; 0xca <__bad_interrupt>
      6c:	0c 94 65 00 	jmp	0xca	; 0xca <__bad_interrupt>
      70:	0c 94 cc 05 	jmp	0xb98	; 0xb98 <__vector_28>
      74:	0c 94 66 05 	jmp	0xacc	; 0xacc <__vector_29>
      78:	0c 94 00 05 	jmp	0xa00	; 0xa00 <__vector_30>
      7c:	0c 94 65 00 	jmp	0xca	; 0xca <__bad_interrupt>
      80:	0c 94 65 00 	jmp	0xca	; 0xca <__bad_interrupt>
      84:	0c 94 65 00 	jmp	0xca	; 0xca <__bad_interrupt>
      88:	0c 94 65 00 	jmp	0xca	; 0xca <__bad_interrupt>

0000008c <__ctors_end>:
      8c:	11 24       	eor	r1, r1
      8e:	1f be       	out	0x3f, r1	; 63
      90:	cf ef       	ldi	r28, 0xFF	; 255
      92:	d0 e4       	ldi	r29, 0x40	; 64
      94:	de bf       	out	0x3e, r29	; 62
      96:	cd bf       	out	0x3d, r28	; 61

00000098 <__do_copy_data>:
      98:	11 e0       	ldi	r17, 0x01	; 1
      9a:	a0 e0       	ldi	r26, 0x00	; 0
      9c:	b1 e0       	ldi	r27, 0x01	; 1
      9e:	e8 eb       	ldi	r30, 0xB8	; 184
      a0:	f0 e1       	ldi	r31, 0x10	; 16
      a2:	00 e0       	ldi	r16, 0x00	; 0
      a4:	0b bf       	out	0x3b, r16	; 59
      a6:	02 c0       	rjmp	.+4      	; 0xac <__do_copy_data+0x14>
      a8:	07 90       	elpm	r0, Z+
      aa:	0d 92       	st	X+, r0
      ac:	a0 31       	cpi	r26, 0x10	; 16
      ae:	b1 07       	cpc	r27, r17
      b0:	d9 f7       	brne	.-10     	; 0xa8 <__do_copy_data+0x10>

000000b2 <__do_clear_bss>:
      b2:	11 e0       	ldi	r17, 0x01	; 1
      b4:	a0 e1       	ldi	r26, 0x10	; 16
      b6:	b1 e0       	ldi	r27, 0x01	; 1
      b8:	01 c0       	rjmp	.+2      	; 0xbc <.do_clear_bss_start>

000000ba <.do_clear_bss_loop>:
      ba:	1d 92       	st	X+, r1

000000bc <.do_clear_bss_start>:
      bc:	a1 32       	cpi	r26, 0x21	; 33
      be:	b1 07       	cpc	r27, r17
      c0:	e1 f7       	brne	.-8      	; 0xba <.do_clear_bss_loop>
      c2:	0e 94 67 00 	call	0xce	; 0xce <main>
      c6:	0c 94 5a 08 	jmp	0x10b4	; 0x10b4 <_exit>

000000ca <__bad_interrupt>:
      ca:	0c 94 00 00 	jmp	0	; 0x0 <__vectors>

000000ce <main>:

void LED(unsigned char target, bool status);
void initLED(void);

int main (void)
{
      ce:	0f 93       	push	r16
      d0:	1f 93       	push	r17
      d2:	df 93       	push	r29
      d4:	cf 93       	push	r28
      d6:	cd b7       	in	r28, 0x3d	; 61
      d8:	de b7       	in	r29, 0x3e	; 62
      da:	2a 97       	sbiw	r28, 0x0a	; 10
      dc:	0f b6       	in	r0, 0x3f	; 63
      de:	f8 94       	cli
      e0:	de bf       	out	0x3e, r29	; 62
      e2:	0f be       	out	0x3f, r0	; 63
      e4:	cd bf       	out	0x3d, r28	; 61
	bool failed = false;
      e6:	19 82       	std	Y+1, r1	; 0x01
		},
		.read = {
			.buffer = &array[1],
			.size = 1
		}
	};
      e8:	81 e0       	ldi	r24, 0x01	; 1
      ea:	8c 83       	std	Y+4, r24	; 0x04
      ec:	ce 01       	movw	r24, r28
      ee:	02 96       	adiw	r24, 0x02	; 2
      f0:	9e 83       	std	Y+6, r25	; 0x06
      f2:	8d 83       	std	Y+5, r24	; 0x05
      f4:	81 e0       	ldi	r24, 0x01	; 1
      f6:	8f 83       	std	Y+7, r24	; 0x07
      f8:	ce 01       	movw	r24, r28
      fa:	02 96       	adiw	r24, 0x02	; 2
      fc:	01 96       	adiw	r24, 0x01	; 1
      fe:	99 87       	std	Y+9, r25	; 0x09
     100:	88 87       	std	Y+8, r24	; 0x08
     102:	81 e0       	ldi	r24, 0x01	; 1
     104:	8a 87       	std	Y+10, r24	; 0x0a
	initI2CMaster(100);
     106:	84 e6       	ldi	r24, 0x64	; 100
     108:	90 e0       	ldi	r25, 0x00	; 0
     10a:	0e 94 2a 01 	call	0x254	; 0x254 <initI2CMaster>
//	initUART
	initLED();
     10e:	0e 94 15 01 	call	0x22a	; 0x22a <initLED>
	DDRC |= 0x04;
     112:	a7 e2       	ldi	r26, 0x27	; 39
     114:	b0 e0       	ldi	r27, 0x00	; 0
     116:	e7 e2       	ldi	r30, 0x27	; 39
     118:	f0 e0       	ldi	r31, 0x00	; 0
     11a:	80 81       	ld	r24, Z
     11c:	84 60       	ori	r24, 0x04	; 4
     11e:	8c 93       	st	X, r24
	PORTC &= 0xFB;
     120:	a8 e2       	ldi	r26, 0x28	; 40
     122:	b0 e0       	ldi	r27, 0x00	; 0
     124:	e8 e2       	ldi	r30, 0x28	; 40
     126:	f0 e0       	ldi	r31, 0x00	; 0
     128:	80 81       	ld	r24, Z
     12a:	8b 7f       	andi	r24, 0xFB	; 251
     12c:	8c 93       	st	X, r24
	

	LED(0,true);
     12e:	80 e0       	ldi	r24, 0x00	; 0
     130:	61 e0       	ldi	r22, 0x01	; 1
     132:	0e 94 db 00 	call	0x1b6	; 0x1b6 <LED>
	LED(1,true);
     136:	81 e0       	ldi	r24, 0x01	; 1
     138:	61 e0       	ldi	r22, 0x01	; 1
     13a:	0e 94 db 00 	call	0x1b6	; 0x1b6 <LED>
	LED(2,true);
     13e:	82 e0       	ldi	r24, 0x02	; 2
     140:	61 e0       	ldi	r22, 0x01	; 1
     142:	0e 94 db 00 	call	0x1b6	; 0x1b6 <LED>
	wait_ms(500);
     146:	84 ef       	ldi	r24, 0xF4	; 244
     148:	91 e0       	ldi	r25, 0x01	; 1
     14a:	0e 94 4c 03 	call	0x698	; 0x698 <wait_ms>
	LED(0,false);
     14e:	80 e0       	ldi	r24, 0x00	; 0
     150:	60 e0       	ldi	r22, 0x00	; 0
     152:	0e 94 db 00 	call	0x1b6	; 0x1b6 <LED>
	LED(1,false);
     156:	81 e0       	ldi	r24, 0x01	; 1
     158:	60 e0       	ldi	r22, 0x00	; 0
     15a:	0e 94 db 00 	call	0x1b6	; 0x1b6 <LED>
	LED(2,false);
     15e:	82 e0       	ldi	r24, 0x02	; 2
     160:	60 e0       	ldi	r22, 0x00	; 0
     162:	0e 94 db 00 	call	0x1b6	; 0x1b6 <LED>
	wait_ms(500);
     166:	84 ef       	ldi	r24, 0xF4	; 244
     168:	91 e0       	ldi	r25, 0x01	; 1
     16a:	0e 94 4c 03 	call	0x698	; 0x698 <wait_ms>

	while ( true ) {
		failed = false;
     16e:	19 82       	std	Y+1, r1	; 0x01
		failed |= i2cWrite(&slave);
     170:	89 81       	ldd	r24, Y+1	; 0x01
     172:	08 2f       	mov	r16, r24
     174:	10 e0       	ldi	r17, 0x00	; 0
     176:	ce 01       	movw	r24, r28
     178:	04 96       	adiw	r24, 0x04	; 4
     17a:	0e 94 4b 01 	call	0x296	; 0x296 <i2cWrite>
     17e:	88 2f       	mov	r24, r24
     180:	90 e0       	ldi	r25, 0x00	; 0
     182:	80 2b       	or	r24, r16
     184:	91 2b       	or	r25, r17
     186:	19 82       	std	Y+1, r1	; 0x01
     188:	00 97       	sbiw	r24, 0x00	; 0
     18a:	11 f0       	breq	.+4      	; 0x190 <main+0xc2>
     18c:	81 e0       	ldi	r24, 0x01	; 1
     18e:	89 83       	std	Y+1, r24	; 0x01
		LED(0,failed);
     190:	80 e0       	ldi	r24, 0x00	; 0
     192:	69 81       	ldd	r22, Y+1	; 0x01
     194:	0e 94 db 00 	call	0x1b6	; 0x1b6 <LED>
		LED(1,!failed);
     198:	99 81       	ldd	r25, Y+1	; 0x01
     19a:	81 e0       	ldi	r24, 0x01	; 1
     19c:	89 27       	eor	r24, r25
     19e:	88 2f       	mov	r24, r24
     1a0:	90 e0       	ldi	r25, 0x00	; 0
     1a2:	98 2f       	mov	r25, r24
     1a4:	81 e0       	ldi	r24, 0x01	; 1
     1a6:	69 2f       	mov	r22, r25
     1a8:	0e 94 db 00 	call	0x1b6	; 0x1b6 <LED>
		wait_ms(10);
     1ac:	8a e0       	ldi	r24, 0x0A	; 10
     1ae:	90 e0       	ldi	r25, 0x00	; 0
     1b0:	0e 94 4c 03 	call	0x698	; 0x698 <wait_ms>
     1b4:	dc cf       	rjmp	.-72     	; 0x16e <main+0xa0>

000001b6 <LED>:
	}
	return 0;
}

void LED(unsigned char target, bool status)
{
     1b6:	df 93       	push	r29
     1b8:	cf 93       	push	r28
     1ba:	00 d0       	rcall	.+0      	; 0x1bc <LED+0x6>
     1bc:	cd b7       	in	r28, 0x3d	; 61
     1be:	de b7       	in	r29, 0x3e	; 62
     1c0:	89 83       	std	Y+1, r24	; 0x01
     1c2:	6a 83       	std	Y+2, r22	; 0x02
	if(target > 2)return;
     1c4:	89 81       	ldd	r24, Y+1	; 0x01
     1c6:	83 30       	cpi	r24, 0x03	; 3
     1c8:	58 f5       	brcc	.+86     	; 0x220 <LED+0x6a>
	if(status)	PORTA &= ~_BV(target);
     1ca:	8a 81       	ldd	r24, Y+2	; 0x02
     1cc:	88 23       	and	r24, r24
     1ce:	a9 f0       	breq	.+42     	; 0x1fa <LED+0x44>
     1d0:	a2 e2       	ldi	r26, 0x22	; 34
     1d2:	b0 e0       	ldi	r27, 0x00	; 0
     1d4:	e2 e2       	ldi	r30, 0x22	; 34
     1d6:	f0 e0       	ldi	r31, 0x00	; 0
     1d8:	80 81       	ld	r24, Z
     1da:	48 2f       	mov	r20, r24
     1dc:	89 81       	ldd	r24, Y+1	; 0x01
     1de:	28 2f       	mov	r18, r24
     1e0:	30 e0       	ldi	r19, 0x00	; 0
     1e2:	81 e0       	ldi	r24, 0x01	; 1
     1e4:	90 e0       	ldi	r25, 0x00	; 0
     1e6:	02 2e       	mov	r0, r18
     1e8:	02 c0       	rjmp	.+4      	; 0x1ee <LED+0x38>
     1ea:	88 0f       	add	r24, r24
     1ec:	99 1f       	adc	r25, r25
     1ee:	0a 94       	dec	r0
     1f0:	e2 f7       	brpl	.-8      	; 0x1ea <LED+0x34>
     1f2:	80 95       	com	r24
     1f4:	84 23       	and	r24, r20
     1f6:	8c 93       	st	X, r24
     1f8:	13 c0       	rjmp	.+38     	; 0x220 <LED+0x6a>
	else		PORTA |= _BV(target);
     1fa:	a2 e2       	ldi	r26, 0x22	; 34
     1fc:	b0 e0       	ldi	r27, 0x00	; 0
     1fe:	e2 e2       	ldi	r30, 0x22	; 34
     200:	f0 e0       	ldi	r31, 0x00	; 0
     202:	80 81       	ld	r24, Z
     204:	48 2f       	mov	r20, r24
     206:	89 81       	ldd	r24, Y+1	; 0x01
     208:	28 2f       	mov	r18, r24
     20a:	30 e0       	ldi	r19, 0x00	; 0
     20c:	81 e0       	ldi	r24, 0x01	; 1
     20e:	90 e0       	ldi	r25, 0x00	; 0
     210:	02 2e       	mov	r0, r18
     212:	02 c0       	rjmp	.+4      	; 0x218 <LED+0x62>
     214:	88 0f       	add	r24, r24
     216:	99 1f       	adc	r25, r25
     218:	0a 94       	dec	r0
     21a:	e2 f7       	brpl	.-8      	; 0x214 <LED+0x5e>
     21c:	84 2b       	or	r24, r20
     21e:	8c 93       	st	X, r24
}
     220:	0f 90       	pop	r0
     222:	0f 90       	pop	r0
     224:	cf 91       	pop	r28
     226:	df 91       	pop	r29
     228:	08 95       	ret

0000022a <initLED>:

void initLED(void)
{
     22a:	df 93       	push	r29
     22c:	cf 93       	push	r28
     22e:	cd b7       	in	r28, 0x3d	; 61
     230:	de b7       	in	r29, 0x3e	; 62
	DDRA |= 0x07;
     232:	a1 e2       	ldi	r26, 0x21	; 33
     234:	b0 e0       	ldi	r27, 0x00	; 0
     236:	e1 e2       	ldi	r30, 0x21	; 33
     238:	f0 e0       	ldi	r31, 0x00	; 0
     23a:	80 81       	ld	r24, Z
     23c:	87 60       	ori	r24, 0x07	; 7
     23e:	8c 93       	st	X, r24
	PORTA |= 0x07;
     240:	a2 e2       	ldi	r26, 0x22	; 34
     242:	b0 e0       	ldi	r27, 0x00	; 0
     244:	e2 e2       	ldi	r30, 0x22	; 34
     246:	f0 e0       	ldi	r31, 0x00	; 0
     248:	80 81       	ld	r24, Z
     24a:	87 60       	ori	r24, 0x07	; 7
     24c:	8c 93       	st	X, r24
}
     24e:	cf 91       	pop	r28
     250:	df 91       	pop	r29
     252:	08 95       	ret

00000254 <initI2CMaster>:
 * @code
 *     initI2CMaster(100); //100kbpsでマスター動作に初期化
 * @endcode
 */
void initI2CMaster(uint16_t speed) 
{
     254:	df 93       	push	r29
     256:	cf 93       	push	r28
     258:	00 d0       	rcall	.+0      	; 0x25a <initI2CMaster+0x6>
     25a:	cd b7       	in	r28, 0x3d	; 61
     25c:	de b7       	in	r29, 0x3e	; 62
     25e:	9a 83       	std	Y+2, r25	; 0x02
     260:	89 83       	std	Y+1, r24	; 0x01
	// ボーレートを設定し，TWI動作を許可する
		TWBR = ( ( ( FREQ * 1000 ) / speed ) - 16 ) / 2;
     262:	e8 eb       	ldi	r30, 0xB8	; 184
     264:	f0 e0       	ldi	r31, 0x00	; 0
     266:	80 e2       	ldi	r24, 0x20	; 32
     268:	9e e4       	ldi	r25, 0x4E	; 78
     26a:	29 81       	ldd	r18, Y+1	; 0x01
     26c:	3a 81       	ldd	r19, Y+2	; 0x02
     26e:	b9 01       	movw	r22, r18
     270:	0e 94 24 08 	call	0x1048	; 0x1048 <__udivmodhi4>
     274:	cb 01       	movw	r24, r22
     276:	40 97       	sbiw	r24, 0x10	; 16
     278:	96 95       	lsr	r25
     27a:	87 95       	ror	r24
     27c:	80 83       	st	Z, r24
		TWSR = 0;
     27e:	e9 eb       	ldi	r30, 0xB9	; 185
     280:	f0 e0       	ldi	r31, 0x00	; 0
     282:	10 82       	st	Z, r1
		TWCR = EnableI2C;
     284:	ec eb       	ldi	r30, 0xBC	; 188
     286:	f0 e0       	ldi	r31, 0x00	; 0
     288:	84 e0       	ldi	r24, 0x04	; 4
     28a:	80 83       	st	Z, r24
}
     28c:	0f 90       	pop	r0
     28e:	0f 90       	pop	r0
     290:	cf 91       	pop	r28
     292:	df 91       	pop	r29
     294:	08 95       	ret

00000296 <i2cWrite>:
 *     transBuf = 0xff;
 *     i2cWrite(&slave);   // アドレスが0x01のスレーブに0xffが書かれる
 * @endcode
 */
bool i2cWrite(Slave* slave)
{
     296:	df 93       	push	r29
     298:	cf 93       	push	r28
     29a:	00 d0       	rcall	.+0      	; 0x29c <i2cWrite+0x6>
     29c:	00 d0       	rcall	.+0      	; 0x29e <i2cWrite+0x8>
     29e:	0f 92       	push	r0
     2a0:	cd b7       	in	r28, 0x3d	; 61
     2a2:	de b7       	in	r29, 0x3e	; 62
     2a4:	9c 83       	std	Y+4, r25	; 0x04
     2a6:	8b 83       	std	Y+3, r24	; 0x03
		uint8_t i, size;
	// 開始条件の生成
		TWCR = SendStartConditionBit;
     2a8:	ec eb       	ldi	r30, 0xBC	; 188
     2aa:	f0 e0       	ldi	r31, 0x00	; 0
     2ac:	84 ea       	ldi	r24, 0xA4	; 164
     2ae:	80 83       	st	Z, r24
		while ( I2C_DOING );
     2b0:	ec eb       	ldi	r30, 0xBC	; 188
     2b2:	f0 e0       	ldi	r31, 0x00	; 0
     2b4:	80 81       	ld	r24, Z
     2b6:	88 23       	and	r24, r24
     2b8:	dc f7       	brge	.-10     	; 0x2b0 <i2cWrite+0x1a>
		if ( I2C_STATUS != SentStartConditionBit ) goto ERROR;
     2ba:	e9 eb       	ldi	r30, 0xB9	; 185
     2bc:	f0 e0       	ldi	r31, 0x00	; 0
     2be:	80 81       	ld	r24, Z
     2c0:	88 2f       	mov	r24, r24
     2c2:	90 e0       	ldi	r25, 0x00	; 0
     2c4:	88 7f       	andi	r24, 0xF8	; 248
     2c6:	90 70       	andi	r25, 0x00	; 0
     2c8:	88 30       	cpi	r24, 0x08	; 8
     2ca:	91 05       	cpc	r25, r1
     2cc:	09 f0       	breq	.+2      	; 0x2d0 <i2cWrite+0x3a>
     2ce:	4e c0       	rjmp	.+156    	; 0x36c <i2cWrite+0xd6>
		
	// アドレス転送，ACK確認		
		TWDR = ( slave->address << 1 ) | WRITE;
     2d0:	ab eb       	ldi	r26, 0xBB	; 187
     2d2:	b0 e0       	ldi	r27, 0x00	; 0
     2d4:	eb 81       	ldd	r30, Y+3	; 0x03
     2d6:	fc 81       	ldd	r31, Y+4	; 0x04
     2d8:	80 81       	ld	r24, Z
     2da:	88 0f       	add	r24, r24
     2dc:	8c 93       	st	X, r24
		TWCR = ContinueI2C;
     2de:	ec eb       	ldi	r30, 0xBC	; 188
     2e0:	f0 e0       	ldi	r31, 0x00	; 0
     2e2:	84 e8       	ldi	r24, 0x84	; 132
     2e4:	80 83       	st	Z, r24
		while ( I2C_DOING );
     2e6:	ec eb       	ldi	r30, 0xBC	; 188
     2e8:	f0 e0       	ldi	r31, 0x00	; 0
     2ea:	80 81       	ld	r24, Z
     2ec:	88 23       	and	r24, r24
     2ee:	dc f7       	brge	.-10     	; 0x2e6 <i2cWrite+0x50>
		if ( I2C_STATUS != SentSlaveAddressWithWriteBitAndACK ) goto ERROR;
     2f0:	e9 eb       	ldi	r30, 0xB9	; 185
     2f2:	f0 e0       	ldi	r31, 0x00	; 0
     2f4:	80 81       	ld	r24, Z
     2f6:	88 2f       	mov	r24, r24
     2f8:	90 e0       	ldi	r25, 0x00	; 0
     2fa:	88 7f       	andi	r24, 0xF8	; 248
     2fc:	90 70       	andi	r25, 0x00	; 0
     2fe:	88 31       	cpi	r24, 0x18	; 24
     300:	91 05       	cpc	r25, r1
     302:	a1 f5       	brne	.+104    	; 0x36c <i2cWrite+0xd6>
		
	// データバイト転送，ACK確認の一連をデータサイズ分行う
		for ( i = 0, size = slave->write.size; i < size; i++ ) {
     304:	1a 82       	std	Y+2, r1	; 0x02
     306:	eb 81       	ldd	r30, Y+3	; 0x03
     308:	fc 81       	ldd	r31, Y+4	; 0x04
     30a:	83 81       	ldd	r24, Z+3	; 0x03
     30c:	89 83       	std	Y+1, r24	; 0x01
     30e:	24 c0       	rjmp	.+72     	; 0x358 <i2cWrite+0xc2>
			TWDR = slave->write.buffer[i];
     310:	ab eb       	ldi	r26, 0xBB	; 187
     312:	b0 e0       	ldi	r27, 0x00	; 0
     314:	eb 81       	ldd	r30, Y+3	; 0x03
     316:	fc 81       	ldd	r31, Y+4	; 0x04
     318:	21 81       	ldd	r18, Z+1	; 0x01
     31a:	32 81       	ldd	r19, Z+2	; 0x02
     31c:	8a 81       	ldd	r24, Y+2	; 0x02
     31e:	88 2f       	mov	r24, r24
     320:	90 e0       	ldi	r25, 0x00	; 0
     322:	f9 01       	movw	r30, r18
     324:	e8 0f       	add	r30, r24
     326:	f9 1f       	adc	r31, r25
     328:	80 81       	ld	r24, Z
     32a:	8c 93       	st	X, r24
			TWCR = ContinueI2C;
     32c:	ec eb       	ldi	r30, 0xBC	; 188
     32e:	f0 e0       	ldi	r31, 0x00	; 0
     330:	84 e8       	ldi	r24, 0x84	; 132
     332:	80 83       	st	Z, r24
			while ( I2C_DOING );
     334:	ec eb       	ldi	r30, 0xBC	; 188
     336:	f0 e0       	ldi	r31, 0x00	; 0
     338:	80 81       	ld	r24, Z
     33a:	88 23       	and	r24, r24
     33c:	dc f7       	brge	.-10     	; 0x334 <i2cWrite+0x9e>
			if ( I2C_STATUS != SentDataByteAndACKAtMaster ) goto ERROR;
     33e:	e9 eb       	ldi	r30, 0xB9	; 185
     340:	f0 e0       	ldi	r31, 0x00	; 0
     342:	80 81       	ld	r24, Z
     344:	88 2f       	mov	r24, r24
     346:	90 e0       	ldi	r25, 0x00	; 0
     348:	88 7f       	andi	r24, 0xF8	; 248
     34a:	90 70       	andi	r25, 0x00	; 0
     34c:	88 32       	cpi	r24, 0x28	; 40
     34e:	91 05       	cpc	r25, r1
     350:	69 f4       	brne	.+26     	; 0x36c <i2cWrite+0xd6>
		TWCR = ContinueI2C;
		while ( I2C_DOING );
		if ( I2C_STATUS != SentSlaveAddressWithWriteBitAndACK ) goto ERROR;
		
	// データバイト転送，ACK確認の一連をデータサイズ分行う
		for ( i = 0, size = slave->write.size; i < size; i++ ) {
     352:	8a 81       	ldd	r24, Y+2	; 0x02
     354:	8f 5f       	subi	r24, 0xFF	; 255
     356:	8a 83       	std	Y+2, r24	; 0x02
     358:	9a 81       	ldd	r25, Y+2	; 0x02
     35a:	89 81       	ldd	r24, Y+1	; 0x01
     35c:	98 17       	cp	r25, r24
     35e:	c0 f2       	brcs	.-80     	; 0x310 <i2cWrite+0x7a>
			while ( I2C_DOING );
			if ( I2C_STATUS != SentDataByteAndACKAtMaster ) goto ERROR;
		}
		
	// 終了条件の生成
		TWCR = SendStopConditionBit;
     360:	ec eb       	ldi	r30, 0xBC	; 188
     362:	f0 e0       	ldi	r31, 0x00	; 0
     364:	84 e9       	ldi	r24, 0x94	; 148
     366:	80 83       	st	Z, r24
		
	// 正常終了
		return false;
     368:	1d 82       	std	Y+5, r1	; 0x05
     36a:	06 c0       	rjmp	.+12     	; 0x378 <i2cWrite+0xe2>
		
	// エラーケース
ERROR:
		TWCR = SendStopConditionBit;
     36c:	ec eb       	ldi	r30, 0xBC	; 188
     36e:	f0 e0       	ldi	r31, 0x00	; 0
     370:	84 e9       	ldi	r24, 0x94	; 148
     372:	80 83       	st	Z, r24
		return true;
     374:	81 e0       	ldi	r24, 0x01	; 1
     376:	8d 83       	std	Y+5, r24	; 0x05
     378:	8d 81       	ldd	r24, Y+5	; 0x05
}
     37a:	0f 90       	pop	r0
     37c:	0f 90       	pop	r0
     37e:	0f 90       	pop	r0
     380:	0f 90       	pop	r0
     382:	0f 90       	pop	r0
     384:	cf 91       	pop	r28
     386:	df 91       	pop	r29
     388:	08 95       	ret

0000038a <i2cRead>:
 *     };
 *     i2cRead(&slave);   // アドレスが0x01のスレーブから値を1byte読む
 * @endcode
 */
bool i2cRead(Slave* slave)
{
     38a:	df 93       	push	r29
     38c:	cf 93       	push	r28
     38e:	00 d0       	rcall	.+0      	; 0x390 <i2cRead+0x6>
     390:	00 d0       	rcall	.+0      	; 0x392 <i2cRead+0x8>
     392:	0f 92       	push	r0
     394:	cd b7       	in	r28, 0x3d	; 61
     396:	de b7       	in	r29, 0x3e	; 62
     398:	9c 83       	std	Y+4, r25	; 0x04
     39a:	8b 83       	std	Y+3, r24	; 0x03
		uint8_t i, size;
	// 開始条件の生成
		TWCR = SendStartConditionBit;
     39c:	ec eb       	ldi	r30, 0xBC	; 188
     39e:	f0 e0       	ldi	r31, 0x00	; 0
     3a0:	84 ea       	ldi	r24, 0xA4	; 164
     3a2:	80 83       	st	Z, r24
		while ( I2C_DOING );
     3a4:	ec eb       	ldi	r30, 0xBC	; 188
     3a6:	f0 e0       	ldi	r31, 0x00	; 0
     3a8:	80 81       	ld	r24, Z
     3aa:	88 23       	and	r24, r24
     3ac:	dc f7       	brge	.-10     	; 0x3a4 <i2cRead+0x1a>
		if ( I2C_STATUS != SentStartConditionBit ) goto ERROR;
     3ae:	e9 eb       	ldi	r30, 0xB9	; 185
     3b0:	f0 e0       	ldi	r31, 0x00	; 0
     3b2:	80 81       	ld	r24, Z
     3b4:	88 2f       	mov	r24, r24
     3b6:	90 e0       	ldi	r25, 0x00	; 0
     3b8:	88 7f       	andi	r24, 0xF8	; 248
     3ba:	90 70       	andi	r25, 0x00	; 0
     3bc:	88 30       	cpi	r24, 0x08	; 8
     3be:	91 05       	cpc	r25, r1
     3c0:	09 f0       	breq	.+2      	; 0x3c4 <i2cRead+0x3a>
     3c2:	75 c0       	rjmp	.+234    	; 0x4ae <i2cRead+0x124>
		
	// アドレス転送，ACK確認
		TWDR = ( slave->address << 1 ) | READ;
     3c4:	ab eb       	ldi	r26, 0xBB	; 187
     3c6:	b0 e0       	ldi	r27, 0x00	; 0
     3c8:	eb 81       	ldd	r30, Y+3	; 0x03
     3ca:	fc 81       	ldd	r31, Y+4	; 0x04
     3cc:	80 81       	ld	r24, Z
     3ce:	88 2f       	mov	r24, r24
     3d0:	90 e0       	ldi	r25, 0x00	; 0
     3d2:	88 0f       	add	r24, r24
     3d4:	99 1f       	adc	r25, r25
     3d6:	81 60       	ori	r24, 0x01	; 1
     3d8:	8c 93       	st	X, r24
		TWCR = ContinueI2C;
     3da:	ec eb       	ldi	r30, 0xBC	; 188
     3dc:	f0 e0       	ldi	r31, 0x00	; 0
     3de:	84 e8       	ldi	r24, 0x84	; 132
     3e0:	80 83       	st	Z, r24
		while ( I2C_DOING );
     3e2:	ec eb       	ldi	r30, 0xBC	; 188
     3e4:	f0 e0       	ldi	r31, 0x00	; 0
     3e6:	80 81       	ld	r24, Z
     3e8:	88 23       	and	r24, r24
     3ea:	dc f7       	brge	.-10     	; 0x3e2 <i2cRead+0x58>
		if ( I2C_STATUS != SentSlaveAddressWithReadBitAndACK ) goto ERROR;
     3ec:	e9 eb       	ldi	r30, 0xB9	; 185
     3ee:	f0 e0       	ldi	r31, 0x00	; 0
     3f0:	80 81       	ld	r24, Z
     3f2:	88 2f       	mov	r24, r24
     3f4:	90 e0       	ldi	r25, 0x00	; 0
     3f6:	88 7f       	andi	r24, 0xF8	; 248
     3f8:	90 70       	andi	r25, 0x00	; 0
     3fa:	80 34       	cpi	r24, 0x40	; 64
     3fc:	91 05       	cpc	r25, r1
     3fe:	09 f0       	breq	.+2      	; 0x402 <i2cRead+0x78>
     400:	56 c0       	rjmp	.+172    	; 0x4ae <i2cRead+0x124>
		
	// データ受信，ACK発行
		for ( i = 0, size = slave->read.size - 1; i < size; i++ ) {
     402:	1a 82       	std	Y+2, r1	; 0x02
     404:	eb 81       	ldd	r30, Y+3	; 0x03
     406:	fc 81       	ldd	r31, Y+4	; 0x04
     408:	86 81       	ldd	r24, Z+6	; 0x06
     40a:	81 50       	subi	r24, 0x01	; 1
     40c:	89 83       	std	Y+1, r24	; 0x01
     40e:	24 c0       	rjmp	.+72     	; 0x458 <i2cRead+0xce>
			TWCR = ContinueAndResponseI2C;
     410:	ec eb       	ldi	r30, 0xBC	; 188
     412:	f0 e0       	ldi	r31, 0x00	; 0
     414:	84 ec       	ldi	r24, 0xC4	; 196
     416:	80 83       	st	Z, r24
			while( I2C_DOING );
     418:	ec eb       	ldi	r30, 0xBC	; 188
     41a:	f0 e0       	ldi	r31, 0x00	; 0
     41c:	80 81       	ld	r24, Z
     41e:	88 23       	and	r24, r24
     420:	dc f7       	brge	.-10     	; 0x418 <i2cRead+0x8e>
			if ( I2C_STATUS != ReceivedDataByteAndACKAtMaster ) goto ERROR;
     422:	e9 eb       	ldi	r30, 0xB9	; 185
     424:	f0 e0       	ldi	r31, 0x00	; 0
     426:	80 81       	ld	r24, Z
     428:	88 2f       	mov	r24, r24
     42a:	90 e0       	ldi	r25, 0x00	; 0
     42c:	88 7f       	andi	r24, 0xF8	; 248
     42e:	90 70       	andi	r25, 0x00	; 0
     430:	80 35       	cpi	r24, 0x50	; 80
     432:	91 05       	cpc	r25, r1
     434:	e1 f5       	brne	.+120    	; 0x4ae <i2cRead+0x124>
			slave->read.buffer[i] = TWDR;
     436:	eb 81       	ldd	r30, Y+3	; 0x03
     438:	fc 81       	ldd	r31, Y+4	; 0x04
     43a:	24 81       	ldd	r18, Z+4	; 0x04
     43c:	35 81       	ldd	r19, Z+5	; 0x05
     43e:	8a 81       	ldd	r24, Y+2	; 0x02
     440:	88 2f       	mov	r24, r24
     442:	90 e0       	ldi	r25, 0x00	; 0
     444:	d9 01       	movw	r26, r18
     446:	a8 0f       	add	r26, r24
     448:	b9 1f       	adc	r27, r25
     44a:	eb eb       	ldi	r30, 0xBB	; 187
     44c:	f0 e0       	ldi	r31, 0x00	; 0
     44e:	80 81       	ld	r24, Z
     450:	8c 93       	st	X, r24
		TWCR = ContinueI2C;
		while ( I2C_DOING );
		if ( I2C_STATUS != SentSlaveAddressWithReadBitAndACK ) goto ERROR;
		
	// データ受信，ACK発行
		for ( i = 0, size = slave->read.size - 1; i < size; i++ ) {
     452:	8a 81       	ldd	r24, Y+2	; 0x02
     454:	8f 5f       	subi	r24, 0xFF	; 255
     456:	8a 83       	std	Y+2, r24	; 0x02
     458:	9a 81       	ldd	r25, Y+2	; 0x02
     45a:	89 81       	ldd	r24, Y+1	; 0x01
     45c:	98 17       	cp	r25, r24
     45e:	c0 f2       	brcs	.-80     	; 0x410 <i2cRead+0x86>
			if ( I2C_STATUS != ReceivedDataByteAndACKAtMaster ) goto ERROR;
			slave->read.buffer[i] = TWDR;
		}
			
	// 最終データ受信，NACK発行
		TWCR = ContinueI2C;
     460:	ec eb       	ldi	r30, 0xBC	; 188
     462:	f0 e0       	ldi	r31, 0x00	; 0
     464:	84 e8       	ldi	r24, 0x84	; 132
     466:	80 83       	st	Z, r24
		while ( I2C_DOING );
     468:	ec eb       	ldi	r30, 0xBC	; 188
     46a:	f0 e0       	ldi	r31, 0x00	; 0
     46c:	80 81       	ld	r24, Z
     46e:	88 23       	and	r24, r24
     470:	dc f7       	brge	.-10     	; 0x468 <i2cRead+0xde>
		if ( I2C_STATUS != ReceivedDataByteAndNACK ) goto ERROR;
     472:	e9 eb       	ldi	r30, 0xB9	; 185
     474:	f0 e0       	ldi	r31, 0x00	; 0
     476:	80 81       	ld	r24, Z
     478:	88 2f       	mov	r24, r24
     47a:	90 e0       	ldi	r25, 0x00	; 0
     47c:	88 7f       	andi	r24, 0xF8	; 248
     47e:	90 70       	andi	r25, 0x00	; 0
     480:	80 35       	cpi	r24, 0x50	; 80
     482:	91 05       	cpc	r25, r1
     484:	a1 f4       	brne	.+40     	; 0x4ae <i2cRead+0x124>
		slave->read.buffer[size] = TWDR;
     486:	eb 81       	ldd	r30, Y+3	; 0x03
     488:	fc 81       	ldd	r31, Y+4	; 0x04
     48a:	24 81       	ldd	r18, Z+4	; 0x04
     48c:	35 81       	ldd	r19, Z+5	; 0x05
     48e:	89 81       	ldd	r24, Y+1	; 0x01
     490:	88 2f       	mov	r24, r24
     492:	90 e0       	ldi	r25, 0x00	; 0
     494:	d9 01       	movw	r26, r18
     496:	a8 0f       	add	r26, r24
     498:	b9 1f       	adc	r27, r25
     49a:	eb eb       	ldi	r30, 0xBB	; 187
     49c:	f0 e0       	ldi	r31, 0x00	; 0
     49e:	80 81       	ld	r24, Z
     4a0:	8c 93       	st	X, r24
		
	// 終了条件の生成
		TWCR = SendStopConditionBit;
     4a2:	ec eb       	ldi	r30, 0xBC	; 188
     4a4:	f0 e0       	ldi	r31, 0x00	; 0
     4a6:	84 e9       	ldi	r24, 0x94	; 148
     4a8:	80 83       	st	Z, r24
		
	// 正常終了
		return false;
     4aa:	1d 82       	std	Y+5, r1	; 0x05
     4ac:	06 c0       	rjmp	.+12     	; 0x4ba <i2cRead+0x130>
		
	// エラーケース
ERROR:
		TWCR = SendStopConditionBit;
     4ae:	ec eb       	ldi	r30, 0xBC	; 188
     4b0:	f0 e0       	ldi	r31, 0x00	; 0
     4b2:	84 e9       	ldi	r24, 0x94	; 148
     4b4:	80 83       	st	Z, r24
		return true;
     4b6:	81 e0       	ldi	r24, 0x01	; 1
     4b8:	8d 83       	std	Y+5, r24	; 0x05
     4ba:	8d 81       	ldd	r24, Y+5	; 0x05
}
     4bc:	0f 90       	pop	r0
     4be:	0f 90       	pop	r0
     4c0:	0f 90       	pop	r0
     4c2:	0f 90       	pop	r0
     4c4:	0f 90       	pop	r0
     4c6:	cf 91       	pop	r28
     4c8:	df 91       	pop	r29
     4ca:	08 95       	ret

000004cc <i2cReadWithCommand>:
 *     };
 *     i2cReadWithCommand(&slave,cmd);   // アドレスが0x01のスレーブにcommandを送り，つづけて値を1byte読む
 * @endcode
 */
bool i2cReadWithCommand(Slave* slave)
{
     4cc:	df 93       	push	r29
     4ce:	cf 93       	push	r28
     4d0:	00 d0       	rcall	.+0      	; 0x4d2 <i2cReadWithCommand+0x6>
     4d2:	00 d0       	rcall	.+0      	; 0x4d4 <i2cReadWithCommand+0x8>
     4d4:	0f 92       	push	r0
     4d6:	cd b7       	in	r28, 0x3d	; 61
     4d8:	de b7       	in	r29, 0x3e	; 62
     4da:	9c 83       	std	Y+4, r25	; 0x04
     4dc:	8b 83       	std	Y+3, r24	; 0x03
		uint8_t i, size;
	// 開始条件の生成
		TWCR = SendStartConditionBit;
     4de:	ec eb       	ldi	r30, 0xBC	; 188
     4e0:	f0 e0       	ldi	r31, 0x00	; 0
     4e2:	84 ea       	ldi	r24, 0xA4	; 164
     4e4:	80 83       	st	Z, r24
		while ( I2C_DOING );
     4e6:	ec eb       	ldi	r30, 0xBC	; 188
     4e8:	f0 e0       	ldi	r31, 0x00	; 0
     4ea:	80 81       	ld	r24, Z
     4ec:	88 23       	and	r24, r24
     4ee:	dc f7       	brge	.-10     	; 0x4e6 <i2cReadWithCommand+0x1a>
		if ( I2C_STATUS != SentStartConditionBit ) goto ERROR;
     4f0:	e9 eb       	ldi	r30, 0xB9	; 185
     4f2:	f0 e0       	ldi	r31, 0x00	; 0
     4f4:	80 81       	ld	r24, Z
     4f6:	88 2f       	mov	r24, r24
     4f8:	90 e0       	ldi	r25, 0x00	; 0
     4fa:	88 7f       	andi	r24, 0xF8	; 248
     4fc:	90 70       	andi	r25, 0x00	; 0
     4fe:	88 30       	cpi	r24, 0x08	; 8
     500:	91 05       	cpc	r25, r1
     502:	09 f0       	breq	.+2      	; 0x506 <i2cReadWithCommand+0x3a>
     504:	a4 c0       	rjmp	.+328    	; 0x64e <i2cReadWithCommand+0x182>
    
	// アドレス転送
		TWDR = ( slave->address << 1 ) | READ;
     506:	ab eb       	ldi	r26, 0xBB	; 187
     508:	b0 e0       	ldi	r27, 0x00	; 0
     50a:	eb 81       	ldd	r30, Y+3	; 0x03
     50c:	fc 81       	ldd	r31, Y+4	; 0x04
     50e:	80 81       	ld	r24, Z
     510:	88 2f       	mov	r24, r24
     512:	90 e0       	ldi	r25, 0x00	; 0
     514:	88 0f       	add	r24, r24
     516:	99 1f       	adc	r25, r25
     518:	81 60       	ori	r24, 0x01	; 1
     51a:	8c 93       	st	X, r24
		TWCR = ContinueI2C;
     51c:	ec eb       	ldi	r30, 0xBC	; 188
     51e:	f0 e0       	ldi	r31, 0x00	; 0
     520:	84 e8       	ldi	r24, 0x84	; 132
     522:	80 83       	st	Z, r24
		while ( I2C_DOING );
     524:	ec eb       	ldi	r30, 0xBC	; 188
     526:	f0 e0       	ldi	r31, 0x00	; 0
     528:	80 81       	ld	r24, Z
     52a:	88 23       	and	r24, r24
     52c:	dc f7       	brge	.-10     	; 0x524 <i2cReadWithCommand+0x58>
		if ( I2C_STATUS != SentSlaveAddressWithReadBitAndACK ) goto ERROR;
     52e:	e9 eb       	ldi	r30, 0xB9	; 185
     530:	f0 e0       	ldi	r31, 0x00	; 0
     532:	80 81       	ld	r24, Z
     534:	88 2f       	mov	r24, r24
     536:	90 e0       	ldi	r25, 0x00	; 0
     538:	88 7f       	andi	r24, 0xF8	; 248
     53a:	90 70       	andi	r25, 0x00	; 0
     53c:	80 34       	cpi	r24, 0x40	; 64
     53e:	91 05       	cpc	r25, r1
     540:	09 f0       	breq	.+2      	; 0x544 <i2cReadWithCommand+0x78>
     542:	85 c0       	rjmp	.+266    	; 0x64e <i2cReadWithCommand+0x182>
    
	// コマンド転送，ACK確認
		for ( i = 0, size = slave->write.size; i < size; i++ ) {
     544:	1a 82       	std	Y+2, r1	; 0x02
     546:	eb 81       	ldd	r30, Y+3	; 0x03
     548:	fc 81       	ldd	r31, Y+4	; 0x04
     54a:	83 81       	ldd	r24, Z+3	; 0x03
     54c:	89 83       	std	Y+1, r24	; 0x01
     54e:	25 c0       	rjmp	.+74     	; 0x59a <i2cReadWithCommand+0xce>
			TWDR = slave->write.buffer[i];
     550:	ab eb       	ldi	r26, 0xBB	; 187
     552:	b0 e0       	ldi	r27, 0x00	; 0
     554:	eb 81       	ldd	r30, Y+3	; 0x03
     556:	fc 81       	ldd	r31, Y+4	; 0x04
     558:	21 81       	ldd	r18, Z+1	; 0x01
     55a:	32 81       	ldd	r19, Z+2	; 0x02
     55c:	8a 81       	ldd	r24, Y+2	; 0x02
     55e:	88 2f       	mov	r24, r24
     560:	90 e0       	ldi	r25, 0x00	; 0
     562:	f9 01       	movw	r30, r18
     564:	e8 0f       	add	r30, r24
     566:	f9 1f       	adc	r31, r25
     568:	80 81       	ld	r24, Z
     56a:	8c 93       	st	X, r24
			TWCR = ContinueI2C;
     56c:	ec eb       	ldi	r30, 0xBC	; 188
     56e:	f0 e0       	ldi	r31, 0x00	; 0
     570:	84 e8       	ldi	r24, 0x84	; 132
     572:	80 83       	st	Z, r24
			while ( I2C_DOING );
     574:	ec eb       	ldi	r30, 0xBC	; 188
     576:	f0 e0       	ldi	r31, 0x00	; 0
     578:	80 81       	ld	r24, Z
     57a:	88 23       	and	r24, r24
     57c:	dc f7       	brge	.-10     	; 0x574 <i2cReadWithCommand+0xa8>
			if ( I2C_STATUS != SentDataByteAndACKAtMaster ) goto ERROR;
     57e:	e9 eb       	ldi	r30, 0xB9	; 185
     580:	f0 e0       	ldi	r31, 0x00	; 0
     582:	80 81       	ld	r24, Z
     584:	88 2f       	mov	r24, r24
     586:	90 e0       	ldi	r25, 0x00	; 0
     588:	88 7f       	andi	r24, 0xF8	; 248
     58a:	90 70       	andi	r25, 0x00	; 0
     58c:	88 32       	cpi	r24, 0x28	; 40
     58e:	91 05       	cpc	r25, r1
     590:	09 f0       	breq	.+2      	; 0x594 <i2cReadWithCommand+0xc8>
     592:	5d c0       	rjmp	.+186    	; 0x64e <i2cReadWithCommand+0x182>
		TWCR = ContinueI2C;
		while ( I2C_DOING );
		if ( I2C_STATUS != SentSlaveAddressWithReadBitAndACK ) goto ERROR;
    
	// コマンド転送，ACK確認
		for ( i = 0, size = slave->write.size; i < size; i++ ) {
     594:	8a 81       	ldd	r24, Y+2	; 0x02
     596:	8f 5f       	subi	r24, 0xFF	; 255
     598:	8a 83       	std	Y+2, r24	; 0x02
     59a:	9a 81       	ldd	r25, Y+2	; 0x02
     59c:	89 81       	ldd	r24, Y+1	; 0x01
     59e:	98 17       	cp	r25, r24
     5a0:	b8 f2       	brcs	.-82     	; 0x550 <i2cReadWithCommand+0x84>
			while ( I2C_DOING );
			if ( I2C_STATUS != SentDataByteAndACKAtMaster ) goto ERROR;
		}
    
	// データバイト受信，ACK発行の一連をデータサイズ-1分行う
		for ( i = 0, size = slave->read.size - 1; i < size; i++ ){
     5a2:	1a 82       	std	Y+2, r1	; 0x02
     5a4:	eb 81       	ldd	r30, Y+3	; 0x03
     5a6:	fc 81       	ldd	r31, Y+4	; 0x04
     5a8:	86 81       	ldd	r24, Z+6	; 0x06
     5aa:	81 50       	subi	r24, 0x01	; 1
     5ac:	89 83       	std	Y+1, r24	; 0x01
     5ae:	24 c0       	rjmp	.+72     	; 0x5f8 <i2cReadWithCommand+0x12c>
		    TWCR = ContinueAndResponseI2C;
     5b0:	ec eb       	ldi	r30, 0xBC	; 188
     5b2:	f0 e0       	ldi	r31, 0x00	; 0
     5b4:	84 ec       	ldi	r24, 0xC4	; 196
     5b6:	80 83       	st	Z, r24
		    while( I2C_DOING );
     5b8:	ec eb       	ldi	r30, 0xBC	; 188
     5ba:	f0 e0       	ldi	r31, 0x00	; 0
     5bc:	80 81       	ld	r24, Z
     5be:	88 23       	and	r24, r24
     5c0:	dc f7       	brge	.-10     	; 0x5b8 <i2cReadWithCommand+0xec>
		    if ( I2C_STATUS != ReceivedDataByteAndACKAtMaster ) goto ERROR;
     5c2:	e9 eb       	ldi	r30, 0xB9	; 185
     5c4:	f0 e0       	ldi	r31, 0x00	; 0
     5c6:	80 81       	ld	r24, Z
     5c8:	88 2f       	mov	r24, r24
     5ca:	90 e0       	ldi	r25, 0x00	; 0
     5cc:	88 7f       	andi	r24, 0xF8	; 248
     5ce:	90 70       	andi	r25, 0x00	; 0
     5d0:	80 35       	cpi	r24, 0x50	; 80
     5d2:	91 05       	cpc	r25, r1
     5d4:	e1 f5       	brne	.+120    	; 0x64e <i2cReadWithCommand+0x182>
		    slave->read.buffer[i] = TWDR;
     5d6:	eb 81       	ldd	r30, Y+3	; 0x03
     5d8:	fc 81       	ldd	r31, Y+4	; 0x04
     5da:	24 81       	ldd	r18, Z+4	; 0x04
     5dc:	35 81       	ldd	r19, Z+5	; 0x05
     5de:	8a 81       	ldd	r24, Y+2	; 0x02
     5e0:	88 2f       	mov	r24, r24
     5e2:	90 e0       	ldi	r25, 0x00	; 0
     5e4:	d9 01       	movw	r26, r18
     5e6:	a8 0f       	add	r26, r24
     5e8:	b9 1f       	adc	r27, r25
     5ea:	eb eb       	ldi	r30, 0xBB	; 187
     5ec:	f0 e0       	ldi	r31, 0x00	; 0
     5ee:	80 81       	ld	r24, Z
     5f0:	8c 93       	st	X, r24
			while ( I2C_DOING );
			if ( I2C_STATUS != SentDataByteAndACKAtMaster ) goto ERROR;
		}
    
	// データバイト受信，ACK発行の一連をデータサイズ-1分行う
		for ( i = 0, size = slave->read.size - 1; i < size; i++ ){
     5f2:	8a 81       	ldd	r24, Y+2	; 0x02
     5f4:	8f 5f       	subi	r24, 0xFF	; 255
     5f6:	8a 83       	std	Y+2, r24	; 0x02
     5f8:	9a 81       	ldd	r25, Y+2	; 0x02
     5fa:	89 81       	ldd	r24, Y+1	; 0x01
     5fc:	98 17       	cp	r25, r24
     5fe:	c0 f2       	brcs	.-80     	; 0x5b0 <i2cReadWithCommand+0xe4>
		    if ( I2C_STATUS != ReceivedDataByteAndACKAtMaster ) goto ERROR;
		    slave->read.buffer[i] = TWDR;
		}
    
	// 最終データバイト受信，NACK発行
		TWCR = ContinueI2C;
     600:	ec eb       	ldi	r30, 0xBC	; 188
     602:	f0 e0       	ldi	r31, 0x00	; 0
     604:	84 e8       	ldi	r24, 0x84	; 132
     606:	80 83       	st	Z, r24
		while ( I2C_DOING );
     608:	ec eb       	ldi	r30, 0xBC	; 188
     60a:	f0 e0       	ldi	r31, 0x00	; 0
     60c:	80 81       	ld	r24, Z
     60e:	88 23       	and	r24, r24
     610:	dc f7       	brge	.-10     	; 0x608 <i2cReadWithCommand+0x13c>
		if ( I2C_STATUS != ReceivedDataByteAndNACK ) goto ERROR;
     612:	e9 eb       	ldi	r30, 0xB9	; 185
     614:	f0 e0       	ldi	r31, 0x00	; 0
     616:	80 81       	ld	r24, Z
     618:	88 2f       	mov	r24, r24
     61a:	90 e0       	ldi	r25, 0x00	; 0
     61c:	88 7f       	andi	r24, 0xF8	; 248
     61e:	90 70       	andi	r25, 0x00	; 0
     620:	80 35       	cpi	r24, 0x50	; 80
     622:	91 05       	cpc	r25, r1
     624:	a1 f4       	brne	.+40     	; 0x64e <i2cReadWithCommand+0x182>
		slave->read.buffer[size] = TWDR;
     626:	eb 81       	ldd	r30, Y+3	; 0x03
     628:	fc 81       	ldd	r31, Y+4	; 0x04
     62a:	24 81       	ldd	r18, Z+4	; 0x04
     62c:	35 81       	ldd	r19, Z+5	; 0x05
     62e:	89 81       	ldd	r24, Y+1	; 0x01
     630:	88 2f       	mov	r24, r24
     632:	90 e0       	ldi	r25, 0x00	; 0
     634:	d9 01       	movw	r26, r18
     636:	a8 0f       	add	r26, r24
     638:	b9 1f       	adc	r27, r25
     63a:	eb eb       	ldi	r30, 0xBB	; 187
     63c:	f0 e0       	ldi	r31, 0x00	; 0
     63e:	80 81       	ld	r24, Z
     640:	8c 93       	st	X, r24
    
	// 終了条件の生成
		TWCR = SendStopConditionBit;
     642:	ec eb       	ldi	r30, 0xBC	; 188
     644:	f0 e0       	ldi	r31, 0x00	; 0
     646:	84 e9       	ldi	r24, 0x94	; 148
     648:	80 83       	st	Z, r24
    
	// 正常終了
		return false;
     64a:	1d 82       	std	Y+5, r1	; 0x05
     64c:	06 c0       	rjmp	.+12     	; 0x65a <i2cReadWithCommand+0x18e>
    
	// エラーケース
ERROR:
		TWCR = SendStopConditionBit;
     64e:	ec eb       	ldi	r30, 0xBC	; 188
     650:	f0 e0       	ldi	r31, 0x00	; 0
     652:	84 e9       	ldi	r24, 0x94	; 148
     654:	80 83       	st	Z, r24
		return true;
     656:	81 e0       	ldi	r24, 0x01	; 1
     658:	8d 83       	std	Y+5, r24	; 0x05
     65a:	8d 81       	ldd	r24, Y+5	; 0x05
}
     65c:	0f 90       	pop	r0
     65e:	0f 90       	pop	r0
     660:	0f 90       	pop	r0
     662:	0f 90       	pop	r0
     664:	0f 90       	pop	r0
     666:	cf 91       	pop	r28
     668:	df 91       	pop	r29
     66a:	08 95       	ret

0000066c <wait_us>:
#include <avr/io.h>
void wait_us(uint16_t t){
     66c:	df 93       	push	r29
     66e:	cf 93       	push	r28
     670:	00 d0       	rcall	.+0      	; 0x672 <wait_us+0x6>
     672:	cd b7       	in	r28, 0x3d	; 61
     674:	de b7       	in	r29, 0x3e	; 62
     676:	9a 83       	std	Y+2, r25	; 0x02
     678:	89 83       	std	Y+1, r24	; 0x01
  static unsigned char lpcnt;
  __asm__ __volatile__("\n"
     67a:	89 81       	ldd	r24, Y+1	; 0x01
     67c:	9a 81       	ldd	r25, Y+2	; 0x02

0000067e <CPU_wait_entry10>:
     67e:	24 e0       	ldi	r18, 0x04	; 4

00000680 <CPU_wait_lp10>:
     680:	00 00       	nop
     682:	2a 95       	dec	r18
     684:	e9 f7       	brne	.-6      	; 0x680 <CPU_wait_lp10>
     686:	01 97       	sbiw	r24, 0x01	; 1
     688:	d1 f7       	brne	.-12     	; 0x67e <CPU_wait_entry10>
     68a:	20 93 10 01 	sts	0x0110, r18
    "sbiw %1,1\n\t"
    "brne CPU_wait_entry%=\n\t"
    :"=&a"(lpcnt)
    :"w"(t)
  );
}
     68e:	0f 90       	pop	r0
     690:	0f 90       	pop	r0
     692:	cf 91       	pop	r28
     694:	df 91       	pop	r29
     696:	08 95       	ret

00000698 <wait_ms>:
void wait_ms(uint16_t t){
     698:	df 93       	push	r29
     69a:	cf 93       	push	r28
     69c:	00 d0       	rcall	.+0      	; 0x69e <wait_ms+0x6>
     69e:	0f 92       	push	r0
     6a0:	cd b7       	in	r28, 0x3d	; 61
     6a2:	de b7       	in	r29, 0x3e	; 62
     6a4:	9a 83       	std	Y+2, r25	; 0x02
     6a6:	89 83       	std	Y+1, r24	; 0x01
     6a8:	04 c0       	rjmp	.+8      	; 0x6b2 <wait_ms+0x1a>
	while(t--) wait_us(1000);
     6aa:	88 ee       	ldi	r24, 0xE8	; 232
     6ac:	93 e0       	ldi	r25, 0x03	; 3
     6ae:	0e 94 36 03 	call	0x66c	; 0x66c <wait_us>
     6b2:	1b 82       	std	Y+3, r1	; 0x03
     6b4:	89 81       	ldd	r24, Y+1	; 0x01
     6b6:	9a 81       	ldd	r25, Y+2	; 0x02
     6b8:	00 97       	sbiw	r24, 0x00	; 0
     6ba:	11 f0       	breq	.+4      	; 0x6c0 <wait_ms+0x28>
     6bc:	81 e0       	ldi	r24, 0x01	; 1
     6be:	8b 83       	std	Y+3, r24	; 0x03
     6c0:	89 81       	ldd	r24, Y+1	; 0x01
     6c2:	9a 81       	ldd	r25, Y+2	; 0x02
     6c4:	01 97       	sbiw	r24, 0x01	; 1
     6c6:	9a 83       	std	Y+2, r25	; 0x02
     6c8:	89 83       	std	Y+1, r24	; 0x01
     6ca:	8b 81       	ldd	r24, Y+3	; 0x03
     6cc:	88 23       	and	r24, r24
     6ce:	69 f7       	brne	.-38     	; 0x6aa <wait_ms+0x12>
	
}
     6d0:	0f 90       	pop	r0
     6d2:	0f 90       	pop	r0
     6d4:	0f 90       	pop	r0
     6d6:	cf 91       	pop	r28
     6d8:	df 91       	pop	r29
     6da:	08 95       	ret

000006dc <initUART>:
 * @param[in] mode {UARTMode} UARTのモード設定値（ストップビット，パリティビット）
 * @param[in] act {UARTAction} UARTの動作の設定値（送信，受信，割り込みなど）
 * @param[in] speed {uint32} UARTの通信速度
 */
void initUART(enum UARTNumber no, enum UARTMode mode, enum UARTAction act,uint32_t speed)
{
     6dc:	0f 93       	push	r16
     6de:	1f 93       	push	r17
     6e0:	df 93       	push	r29
     6e2:	cf 93       	push	r28
     6e4:	cd b7       	in	r28, 0x3d	; 61
     6e6:	de b7       	in	r29, 0x3e	; 62
     6e8:	2d 97       	sbiw	r28, 0x0d	; 13
     6ea:	0f b6       	in	r0, 0x3f	; 63
     6ec:	f8 94       	cli
     6ee:	de bf       	out	0x3e, r29	; 62
     6f0:	0f be       	out	0x3f, r0	; 63
     6f2:	cd bf       	out	0x3d, r28	; 61
     6f4:	8d 83       	std	Y+5, r24	; 0x05
     6f6:	6e 83       	std	Y+6, r22	; 0x06
     6f8:	4f 83       	std	Y+7, r20	; 0x07
     6fa:	08 87       	std	Y+8, r16	; 0x08
     6fc:	19 87       	std	Y+9, r17	; 0x09
     6fe:	2a 87       	std	Y+10, r18	; 0x0a
     700:	3b 87       	std	Y+11, r19	; 0x0b
	uint32_t baud = ( ( ( FREQ * 1000000 ) >> 4 ) / speed ) - 1;
     702:	80 e2       	ldi	r24, 0x20	; 32
     704:	91 ea       	ldi	r25, 0xA1	; 161
     706:	a7 e0       	ldi	r26, 0x07	; 7
     708:	b0 e0       	ldi	r27, 0x00	; 0
     70a:	28 85       	ldd	r18, Y+8	; 0x08
     70c:	39 85       	ldd	r19, Y+9	; 0x09
     70e:	4a 85       	ldd	r20, Y+10	; 0x0a
     710:	5b 85       	ldd	r21, Y+11	; 0x0b
     712:	bc 01       	movw	r22, r24
     714:	cd 01       	movw	r24, r26
     716:	0e 94 38 08 	call	0x1070	; 0x1070 <__udivmodsi4>
     71a:	da 01       	movw	r26, r20
     71c:	c9 01       	movw	r24, r18
     71e:	01 97       	sbiw	r24, 0x01	; 1
     720:	a1 09       	sbc	r26, r1
     722:	b1 09       	sbc	r27, r1
     724:	89 83       	std	Y+1, r24	; 0x01
     726:	9a 83       	std	Y+2, r25	; 0x02
     728:	ab 83       	std	Y+3, r26	; 0x03
     72a:	bc 83       	std	Y+4, r27	; 0x04
	
	switch ( no ){
     72c:	8d 81       	ldd	r24, Y+5	; 0x05
     72e:	28 2f       	mov	r18, r24
     730:	30 e0       	ldi	r19, 0x00	; 0
     732:	3d 87       	std	Y+13, r19	; 0x0d
     734:	2c 87       	std	Y+12, r18	; 0x0c
     736:	8c 85       	ldd	r24, Y+12	; 0x0c
     738:	9d 85       	ldd	r25, Y+13	; 0x0d
     73a:	00 97       	sbiw	r24, 0x00	; 0
     73c:	31 f0       	breq	.+12     	; 0x74a <initUART+0x6e>
     73e:	2c 85       	ldd	r18, Y+12	; 0x0c
     740:	3d 85       	ldd	r19, Y+13	; 0x0d
     742:	21 30       	cpi	r18, 0x01	; 1
     744:	31 05       	cpc	r19, r1
     746:	d1 f0       	breq	.+52     	; 0x77c <initUART+0xa0>
     748:	31 c0       	rjmp	.+98     	; 0x7ac <initUART+0xd0>
		case UART0:
			UCSR0C = mode | OneFrameIs8Bit;
     74a:	e2 ec       	ldi	r30, 0xC2	; 194
     74c:	f0 e0       	ldi	r31, 0x00	; 0
     74e:	8e 81       	ldd	r24, Y+6	; 0x06
     750:	86 60       	ori	r24, 0x06	; 6
     752:	80 83       	st	Z, r24
			UCSR0B = act;
     754:	e1 ec       	ldi	r30, 0xC1	; 193
     756:	f0 e0       	ldi	r31, 0x00	; 0
     758:	8f 81       	ldd	r24, Y+7	; 0x07
     75a:	80 83       	st	Z, r24
			UBRR0H = (uint8_t)(baud>>8);
     75c:	e5 ec       	ldi	r30, 0xC5	; 197
     75e:	f0 e0       	ldi	r31, 0x00	; 0
     760:	89 81       	ldd	r24, Y+1	; 0x01
     762:	9a 81       	ldd	r25, Y+2	; 0x02
     764:	ab 81       	ldd	r26, Y+3	; 0x03
     766:	bc 81       	ldd	r27, Y+4	; 0x04
     768:	89 2f       	mov	r24, r25
     76a:	9a 2f       	mov	r25, r26
     76c:	ab 2f       	mov	r26, r27
     76e:	bb 27       	eor	r27, r27
     770:	80 83       	st	Z, r24
	 		UBRR0L = (uint8_t)baud;
     772:	e4 ec       	ldi	r30, 0xC4	; 196
     774:	f0 e0       	ldi	r31, 0x00	; 0
     776:	89 81       	ldd	r24, Y+1	; 0x01
     778:	80 83       	st	Z, r24
     77a:	18 c0       	rjmp	.+48     	; 0x7ac <initUART+0xd0>
			break;
		case UART1:
			UCSR1C = mode | OneFrameIs8Bit;
     77c:	ea ec       	ldi	r30, 0xCA	; 202
     77e:	f0 e0       	ldi	r31, 0x00	; 0
     780:	8e 81       	ldd	r24, Y+6	; 0x06
     782:	86 60       	ori	r24, 0x06	; 6
     784:	80 83       	st	Z, r24
			UCSR1B = act;
     786:	e9 ec       	ldi	r30, 0xC9	; 201
     788:	f0 e0       	ldi	r31, 0x00	; 0
     78a:	8f 81       	ldd	r24, Y+7	; 0x07
     78c:	80 83       	st	Z, r24
			UBRR1H = (uint8_t)(baud>>8);
     78e:	ed ec       	ldi	r30, 0xCD	; 205
     790:	f0 e0       	ldi	r31, 0x00	; 0
     792:	89 81       	ldd	r24, Y+1	; 0x01
     794:	9a 81       	ldd	r25, Y+2	; 0x02
     796:	ab 81       	ldd	r26, Y+3	; 0x03
     798:	bc 81       	ldd	r27, Y+4	; 0x04
     79a:	89 2f       	mov	r24, r25
     79c:	9a 2f       	mov	r25, r26
     79e:	ab 2f       	mov	r26, r27
     7a0:	bb 27       	eor	r27, r27
     7a2:	80 83       	st	Z, r24
	 		UBRR1L = (uint8_t)baud;
     7a4:	ec ec       	ldi	r30, 0xCC	; 204
     7a6:	f0 e0       	ldi	r31, 0x00	; 0
     7a8:	89 81       	ldd	r24, Y+1	; 0x01
     7aa:	80 83       	st	Z, r24
			break;
		default:
			break;
	}
}
     7ac:	2d 96       	adiw	r28, 0x0d	; 13
     7ae:	0f b6       	in	r0, 0x3f	; 63
     7b0:	f8 94       	cli
     7b2:	de bf       	out	0x3e, r29	; 62
     7b4:	0f be       	out	0x3f, r0	; 63
     7b6:	cd bf       	out	0x3d, r28	; 61
     7b8:	cf 91       	pop	r28
     7ba:	df 91       	pop	r29
     7bc:	1f 91       	pop	r17
     7be:	0f 91       	pop	r16
     7c0:	08 95       	ret

000007c2 <uart0Put>:
/**
 * 1Byte送信する
 * @param[in] value {uint8_t} 送信するデータ
 */
void uart0Put(uint8_t value)
{
     7c2:	df 93       	push	r29
     7c4:	cf 93       	push	r28
     7c6:	0f 92       	push	r0
     7c8:	cd b7       	in	r28, 0x3d	; 61
     7ca:	de b7       	in	r29, 0x3e	; 62
     7cc:	89 83       	std	Y+1, r24	; 0x01
	while ( UART0_TRANSMITTING );
     7ce:	e0 ec       	ldi	r30, 0xC0	; 192
     7d0:	f0 e0       	ldi	r31, 0x00	; 0
     7d2:	80 81       	ld	r24, Z
     7d4:	88 2f       	mov	r24, r24
     7d6:	90 e0       	ldi	r25, 0x00	; 0
     7d8:	80 72       	andi	r24, 0x20	; 32
     7da:	90 70       	andi	r25, 0x00	; 0
     7dc:	00 97       	sbiw	r24, 0x00	; 0
     7de:	b9 f3       	breq	.-18     	; 0x7ce <uart0Put+0xc>
	UDR0 = value;
     7e0:	e6 ec       	ldi	r30, 0xC6	; 198
     7e2:	f0 e0       	ldi	r31, 0x00	; 0
     7e4:	89 81       	ldd	r24, Y+1	; 0x01
     7e6:	80 83       	st	Z, r24
}
     7e8:	0f 90       	pop	r0
     7ea:	cf 91       	pop	r28
     7ec:	df 91       	pop	r29
     7ee:	08 95       	ret

000007f0 <uart1Put>:
/**
 * 1Byte送信する
 * @param[in] value {uint8_t} 送信するデータ
 */
void uart1Put(uint8_t value)
{
     7f0:	df 93       	push	r29
     7f2:	cf 93       	push	r28
     7f4:	0f 92       	push	r0
     7f6:	cd b7       	in	r28, 0x3d	; 61
     7f8:	de b7       	in	r29, 0x3e	; 62
     7fa:	89 83       	std	Y+1, r24	; 0x01
	while ( UART1_TRANSMITTING );
     7fc:	e8 ec       	ldi	r30, 0xC8	; 200
     7fe:	f0 e0       	ldi	r31, 0x00	; 0
     800:	80 81       	ld	r24, Z
     802:	88 2f       	mov	r24, r24
     804:	90 e0       	ldi	r25, 0x00	; 0
     806:	80 72       	andi	r24, 0x20	; 32
     808:	90 70       	andi	r25, 0x00	; 0
     80a:	00 97       	sbiw	r24, 0x00	; 0
     80c:	b9 f3       	breq	.-18     	; 0x7fc <uart1Put+0xc>
	UDR1 = value;
     80e:	ee ec       	ldi	r30, 0xCE	; 206
     810:	f0 e0       	ldi	r31, 0x00	; 0
     812:	89 81       	ldd	r24, Y+1	; 0x01
     814:	80 83       	st	Z, r24
} 
     816:	0f 90       	pop	r0
     818:	cf 91       	pop	r28
     81a:	df 91       	pop	r29
     81c:	08 95       	ret

0000081e <uart0Get>:
/**
 * 1Byte受信する
 * @return {uint8_t} 受信したデータ
 */
uint8_t uart0Get(void)
{
     81e:	df 93       	push	r29
     820:	cf 93       	push	r28
     822:	cd b7       	in	r28, 0x3d	; 61
     824:	de b7       	in	r29, 0x3e	; 62
	while ( UART0_RECEIVING );
     826:	e0 ec       	ldi	r30, 0xC0	; 192
     828:	f0 e0       	ldi	r31, 0x00	; 0
     82a:	80 81       	ld	r24, Z
     82c:	88 23       	and	r24, r24
     82e:	dc f7       	brge	.-10     	; 0x826 <uart0Get+0x8>
	return UDR0;
     830:	e6 ec       	ldi	r30, 0xC6	; 198
     832:	f0 e0       	ldi	r31, 0x00	; 0
     834:	80 81       	ld	r24, Z
}
     836:	cf 91       	pop	r28
     838:	df 91       	pop	r29
     83a:	08 95       	ret

0000083c <uart1Get>:
/**
 * 1Byte受信する
 * @return {uint8_t} 受信したデータ
 */
uint8_t uart1Get(void)
{
     83c:	df 93       	push	r29
     83e:	cf 93       	push	r28
     840:	cd b7       	in	r28, 0x3d	; 61
     842:	de b7       	in	r29, 0x3e	; 62
	while ( UART1_RECEIVING );
     844:	e8 ec       	ldi	r30, 0xC8	; 200
     846:	f0 e0       	ldi	r31, 0x00	; 0
     848:	80 81       	ld	r24, Z
     84a:	88 23       	and	r24, r24
     84c:	dc f7       	brge	.-10     	; 0x844 <uart1Get+0x8>
	return UDR1;
     84e:	ee ec       	ldi	r30, 0xCE	; 206
     850:	f0 e0       	ldi	r31, 0x00	; 0
     852:	80 81       	ld	r24, Z
}
     854:	cf 91       	pop	r28
     856:	df 91       	pop	r29
     858:	08 95       	ret

0000085a <uart0Puts>:
 * 複数Byte送信する
 * @param[in] values {uint8_t*} 送るデータ群
 * @param[in] size {uint8_t} 送るデータサイズ
 */
void uart0Puts(uint8_t* values)
{
     85a:	df 93       	push	r29
     85c:	cf 93       	push	r28
     85e:	00 d0       	rcall	.+0      	; 0x860 <uart0Puts+0x6>
     860:	cd b7       	in	r28, 0x3d	; 61
     862:	de b7       	in	r29, 0x3e	; 62
     864:	9a 83       	std	Y+2, r25	; 0x02
     866:	89 83       	std	Y+1, r24	; 0x01
     868:	0b c0       	rjmp	.+22     	; 0x880 <uart0Puts+0x26>
	while ( *values == '\0' ) {
		uart0Put(*values++);
     86a:	e9 81       	ldd	r30, Y+1	; 0x01
     86c:	fa 81       	ldd	r31, Y+2	; 0x02
     86e:	20 81       	ld	r18, Z
     870:	89 81       	ldd	r24, Y+1	; 0x01
     872:	9a 81       	ldd	r25, Y+2	; 0x02
     874:	01 96       	adiw	r24, 0x01	; 1
     876:	9a 83       	std	Y+2, r25	; 0x02
     878:	89 83       	std	Y+1, r24	; 0x01
     87a:	82 2f       	mov	r24, r18
     87c:	0e 94 e1 03 	call	0x7c2	; 0x7c2 <uart0Put>
 * @param[in] values {uint8_t*} 送るデータ群
 * @param[in] size {uint8_t} 送るデータサイズ
 */
void uart0Puts(uint8_t* values)
{
	while ( *values == '\0' ) {
     880:	e9 81       	ldd	r30, Y+1	; 0x01
     882:	fa 81       	ldd	r31, Y+2	; 0x02
     884:	80 81       	ld	r24, Z
     886:	88 23       	and	r24, r24
     888:	81 f3       	breq	.-32     	; 0x86a <uart0Puts+0x10>
		uart0Put(*values++);
	}
}
     88a:	0f 90       	pop	r0
     88c:	0f 90       	pop	r0
     88e:	cf 91       	pop	r28
     890:	df 91       	pop	r29
     892:	08 95       	ret

00000894 <uart1Puts>:
 * 複数Byte送信する
 * @param[in] values {uint8_t*} 送るデータ群
 * @param[in] size {uint8_t} 送るデータサイズ
 */
void uart1Puts(uint8_t* values)
{
     894:	df 93       	push	r29
     896:	cf 93       	push	r28
     898:	00 d0       	rcall	.+0      	; 0x89a <uart1Puts+0x6>
     89a:	cd b7       	in	r28, 0x3d	; 61
     89c:	de b7       	in	r29, 0x3e	; 62
     89e:	9a 83       	std	Y+2, r25	; 0x02
     8a0:	89 83       	std	Y+1, r24	; 0x01
     8a2:	0b c0       	rjmp	.+22     	; 0x8ba <uart1Puts+0x26>
	while ( *values == '\0' ) {
		uart1Put(*values++);
     8a4:	e9 81       	ldd	r30, Y+1	; 0x01
     8a6:	fa 81       	ldd	r31, Y+2	; 0x02
     8a8:	20 81       	ld	r18, Z
     8aa:	89 81       	ldd	r24, Y+1	; 0x01
     8ac:	9a 81       	ldd	r25, Y+2	; 0x02
     8ae:	01 96       	adiw	r24, 0x01	; 1
     8b0:	9a 83       	std	Y+2, r25	; 0x02
     8b2:	89 83       	std	Y+1, r24	; 0x01
     8b4:	82 2f       	mov	r24, r18
     8b6:	0e 94 f8 03 	call	0x7f0	; 0x7f0 <uart1Put>
 * @param[in] values {uint8_t*} 送るデータ群
 * @param[in] size {uint8_t} 送るデータサイズ
 */
void uart1Puts(uint8_t* values)
{
	while ( *values == '\0' ) {
     8ba:	e9 81       	ldd	r30, Y+1	; 0x01
     8bc:	fa 81       	ldd	r31, Y+2	; 0x02
     8be:	80 81       	ld	r24, Z
     8c0:	88 23       	and	r24, r24
     8c2:	81 f3       	breq	.-32     	; 0x8a4 <uart1Puts+0x10>
		uart1Put(*values++);
	}
}
     8c4:	0f 90       	pop	r0
     8c6:	0f 90       	pop	r0
     8c8:	cf 91       	pop	r28
     8ca:	df 91       	pop	r29
     8cc:	08 95       	ret

000008ce <setTransmitCompleteInterruptFunc>:
 * 送信完了割り込み動作委譲用関数ポインタセッター関数
 * @param[in] no {UARTNumber} UARTの番号
 * @param[in] f {void(*)(void)} 関数ポインタ
 */
void setTransmitCompleteInterruptFunc(enum UARTNumber no, void (*f)(void))
{
     8ce:	df 93       	push	r29
     8d0:	cf 93       	push	r28
     8d2:	00 d0       	rcall	.+0      	; 0x8d4 <setTransmitCompleteInterruptFunc+0x6>
     8d4:	0f 92       	push	r0
     8d6:	cd b7       	in	r28, 0x3d	; 61
     8d8:	de b7       	in	r29, 0x3e	; 62
     8da:	89 83       	std	Y+1, r24	; 0x01
     8dc:	7b 83       	std	Y+3, r23	; 0x03
     8de:	6a 83       	std	Y+2, r22	; 0x02
	if ( no == UART0 )
     8e0:	89 81       	ldd	r24, Y+1	; 0x01
     8e2:	88 23       	and	r24, r24
     8e4:	39 f4       	brne	.+14     	; 0x8f4 <setTransmitCompleteInterruptFunc+0x26>
		transComplete0 = f;
     8e6:	8a 81       	ldd	r24, Y+2	; 0x02
     8e8:	9b 81       	ldd	r25, Y+3	; 0x03
     8ea:	90 93 12 01 	sts	0x0112, r25
     8ee:	80 93 11 01 	sts	0x0111, r24
     8f2:	09 c0       	rjmp	.+18     	; 0x906 <setTransmitCompleteInterruptFunc+0x38>
	else if ( no == UART1 )
     8f4:	89 81       	ldd	r24, Y+1	; 0x01
     8f6:	81 30       	cpi	r24, 0x01	; 1
     8f8:	31 f4       	brne	.+12     	; 0x906 <setTransmitCompleteInterruptFunc+0x38>
		transComplete1 = f;
     8fa:	8a 81       	ldd	r24, Y+2	; 0x02
     8fc:	9b 81       	ldd	r25, Y+3	; 0x03
     8fe:	90 93 14 01 	sts	0x0114, r25
     902:	80 93 13 01 	sts	0x0113, r24
}
     906:	0f 90       	pop	r0
     908:	0f 90       	pop	r0
     90a:	0f 90       	pop	r0
     90c:	cf 91       	pop	r28
     90e:	df 91       	pop	r29
     910:	08 95       	ret

00000912 <setDataRegisterEmptyFunc>:
 * 送信データレジスタ空き割り込み動作委譲用関数ポインタセッター関数
 * @param[in] no {UARTNumber} UARTの番号
 * @param[in] f {void(*)(void)} 関数ポインタ
 */
void setDataRegisterEmptyFunc(enum UARTNumber no, void (*f)(void))
{
     912:	df 93       	push	r29
     914:	cf 93       	push	r28
     916:	00 d0       	rcall	.+0      	; 0x918 <setDataRegisterEmptyFunc+0x6>
     918:	0f 92       	push	r0
     91a:	cd b7       	in	r28, 0x3d	; 61
     91c:	de b7       	in	r29, 0x3e	; 62
     91e:	89 83       	std	Y+1, r24	; 0x01
     920:	7b 83       	std	Y+3, r23	; 0x03
     922:	6a 83       	std	Y+2, r22	; 0x02
	if ( no == UART0 )
     924:	89 81       	ldd	r24, Y+1	; 0x01
     926:	88 23       	and	r24, r24
     928:	39 f4       	brne	.+14     	; 0x938 <setDataRegisterEmptyFunc+0x26>
		dataRegisterEmpty0 = f;
     92a:	8a 81       	ldd	r24, Y+2	; 0x02
     92c:	9b 81       	ldd	r25, Y+3	; 0x03
     92e:	90 93 16 01 	sts	0x0116, r25
     932:	80 93 15 01 	sts	0x0115, r24
     936:	09 c0       	rjmp	.+18     	; 0x94a <setDataRegisterEmptyFunc+0x38>
	else if ( no == UART1 )
     938:	89 81       	ldd	r24, Y+1	; 0x01
     93a:	81 30       	cpi	r24, 0x01	; 1
     93c:	31 f4       	brne	.+12     	; 0x94a <setDataRegisterEmptyFunc+0x38>
		dataRegisterEmpty1 = f;
     93e:	8a 81       	ldd	r24, Y+2	; 0x02
     940:	9b 81       	ldd	r25, Y+3	; 0x03
     942:	90 93 18 01 	sts	0x0118, r25
     946:	80 93 17 01 	sts	0x0117, r24
}
     94a:	0f 90       	pop	r0
     94c:	0f 90       	pop	r0
     94e:	0f 90       	pop	r0
     950:	cf 91       	pop	r28
     952:	df 91       	pop	r29
     954:	08 95       	ret

00000956 <setReceiveCompleteInterruptFunc>:
 * 受信完了割り込み動作委譲用関数ポインタセッター関数
 * @param[in] no {UARTNumber} UARTの番号
 * @param[in] f {void(*)(void)} 関数ポインタ
 */
 void setReceiveCompleteInterruptFunc(enum UARTNumber no,void (*f)(void))
 {
     956:	df 93       	push	r29
     958:	cf 93       	push	r28
     95a:	00 d0       	rcall	.+0      	; 0x95c <setReceiveCompleteInterruptFunc+0x6>
     95c:	0f 92       	push	r0
     95e:	cd b7       	in	r28, 0x3d	; 61
     960:	de b7       	in	r29, 0x3e	; 62
     962:	89 83       	std	Y+1, r24	; 0x01
     964:	7b 83       	std	Y+3, r23	; 0x03
     966:	6a 83       	std	Y+2, r22	; 0x02
 	if ( no == UART0 )
     968:	89 81       	ldd	r24, Y+1	; 0x01
     96a:	88 23       	and	r24, r24
     96c:	39 f4       	brne	.+14     	; 0x97c <setReceiveCompleteInterruptFunc+0x26>
		receiveComplete0 = f;
     96e:	8a 81       	ldd	r24, Y+2	; 0x02
     970:	9b 81       	ldd	r25, Y+3	; 0x03
     972:	90 93 1a 01 	sts	0x011A, r25
     976:	80 93 19 01 	sts	0x0119, r24
     97a:	09 c0       	rjmp	.+18     	; 0x98e <setReceiveCompleteInterruptFunc+0x38>
	else if ( no == UART1 )
     97c:	89 81       	ldd	r24, Y+1	; 0x01
     97e:	81 30       	cpi	r24, 0x01	; 1
     980:	31 f4       	brne	.+12     	; 0x98e <setReceiveCompleteInterruptFunc+0x38>
		receiveComplete1 = f;
     982:	8a 81       	ldd	r24, Y+2	; 0x02
     984:	9b 81       	ldd	r25, Y+3	; 0x03
     986:	90 93 1c 01 	sts	0x011C, r25
     98a:	80 93 1b 01 	sts	0x011B, r24
 }
     98e:	0f 90       	pop	r0
     990:	0f 90       	pop	r0
     992:	0f 90       	pop	r0
     994:	cf 91       	pop	r28
     996:	df 91       	pop	r29
     998:	08 95       	ret

0000099a <__vector_22>:

/**
 * 送信完了割り込み
 */
ISR (USART0_TX_vect)
{
     99a:	1f 92       	push	r1
     99c:	0f 92       	push	r0
     99e:	0f b6       	in	r0, 0x3f	; 63
     9a0:	0f 92       	push	r0
     9a2:	00 90 5b 00 	lds	r0, 0x005B
     9a6:	0f 92       	push	r0
     9a8:	11 24       	eor	r1, r1
     9aa:	2f 93       	push	r18
     9ac:	3f 93       	push	r19
     9ae:	4f 93       	push	r20
     9b0:	5f 93       	push	r21
     9b2:	6f 93       	push	r22
     9b4:	7f 93       	push	r23
     9b6:	8f 93       	push	r24
     9b8:	9f 93       	push	r25
     9ba:	af 93       	push	r26
     9bc:	bf 93       	push	r27
     9be:	ef 93       	push	r30
     9c0:	ff 93       	push	r31
     9c2:	df 93       	push	r29
     9c4:	cf 93       	push	r28
     9c6:	cd b7       	in	r28, 0x3d	; 61
     9c8:	de b7       	in	r29, 0x3e	; 62
	transComplete0();
     9ca:	e0 91 11 01 	lds	r30, 0x0111
     9ce:	f0 91 12 01 	lds	r31, 0x0112
     9d2:	09 95       	icall
}
     9d4:	cf 91       	pop	r28
     9d6:	df 91       	pop	r29
     9d8:	ff 91       	pop	r31
     9da:	ef 91       	pop	r30
     9dc:	bf 91       	pop	r27
     9de:	af 91       	pop	r26
     9e0:	9f 91       	pop	r25
     9e2:	8f 91       	pop	r24
     9e4:	7f 91       	pop	r23
     9e6:	6f 91       	pop	r22
     9e8:	5f 91       	pop	r21
     9ea:	4f 91       	pop	r20
     9ec:	3f 91       	pop	r19
     9ee:	2f 91       	pop	r18
     9f0:	0f 90       	pop	r0
     9f2:	00 92 5b 00 	sts	0x005B, r0
     9f6:	0f 90       	pop	r0
     9f8:	0f be       	out	0x3f, r0	; 63
     9fa:	0f 90       	pop	r0
     9fc:	1f 90       	pop	r1
     9fe:	18 95       	reti

00000a00 <__vector_30>:
/**
 * 送信完了割り込み
 */
ISR (USART1_TX_vect)
{
     a00:	1f 92       	push	r1
     a02:	0f 92       	push	r0
     a04:	0f b6       	in	r0, 0x3f	; 63
     a06:	0f 92       	push	r0
     a08:	00 90 5b 00 	lds	r0, 0x005B
     a0c:	0f 92       	push	r0
     a0e:	11 24       	eor	r1, r1
     a10:	2f 93       	push	r18
     a12:	3f 93       	push	r19
     a14:	4f 93       	push	r20
     a16:	5f 93       	push	r21
     a18:	6f 93       	push	r22
     a1a:	7f 93       	push	r23
     a1c:	8f 93       	push	r24
     a1e:	9f 93       	push	r25
     a20:	af 93       	push	r26
     a22:	bf 93       	push	r27
     a24:	ef 93       	push	r30
     a26:	ff 93       	push	r31
     a28:	df 93       	push	r29
     a2a:	cf 93       	push	r28
     a2c:	cd b7       	in	r28, 0x3d	; 61
     a2e:	de b7       	in	r29, 0x3e	; 62
	transComplete1();
     a30:	e0 91 13 01 	lds	r30, 0x0113
     a34:	f0 91 14 01 	lds	r31, 0x0114
     a38:	09 95       	icall
}
     a3a:	cf 91       	pop	r28
     a3c:	df 91       	pop	r29
     a3e:	ff 91       	pop	r31
     a40:	ef 91       	pop	r30
     a42:	bf 91       	pop	r27
     a44:	af 91       	pop	r26
     a46:	9f 91       	pop	r25
     a48:	8f 91       	pop	r24
     a4a:	7f 91       	pop	r23
     a4c:	6f 91       	pop	r22
     a4e:	5f 91       	pop	r21
     a50:	4f 91       	pop	r20
     a52:	3f 91       	pop	r19
     a54:	2f 91       	pop	r18
     a56:	0f 90       	pop	r0
     a58:	00 92 5b 00 	sts	0x005B, r0
     a5c:	0f 90       	pop	r0
     a5e:	0f be       	out	0x3f, r0	; 63
     a60:	0f 90       	pop	r0
     a62:	1f 90       	pop	r1
     a64:	18 95       	reti

00000a66 <__vector_21>:
 
/**
 * 送信データレジスタ空き割り込み
 */
ISR (USART0_UDRE_vect)
{
     a66:	1f 92       	push	r1
     a68:	0f 92       	push	r0
     a6a:	0f b6       	in	r0, 0x3f	; 63
     a6c:	0f 92       	push	r0
     a6e:	00 90 5b 00 	lds	r0, 0x005B
     a72:	0f 92       	push	r0
     a74:	11 24       	eor	r1, r1
     a76:	2f 93       	push	r18
     a78:	3f 93       	push	r19
     a7a:	4f 93       	push	r20
     a7c:	5f 93       	push	r21
     a7e:	6f 93       	push	r22
     a80:	7f 93       	push	r23
     a82:	8f 93       	push	r24
     a84:	9f 93       	push	r25
     a86:	af 93       	push	r26
     a88:	bf 93       	push	r27
     a8a:	ef 93       	push	r30
     a8c:	ff 93       	push	r31
     a8e:	df 93       	push	r29
     a90:	cf 93       	push	r28
     a92:	cd b7       	in	r28, 0x3d	; 61
     a94:	de b7       	in	r29, 0x3e	; 62
	dataRegisterEmpty0();
     a96:	e0 91 15 01 	lds	r30, 0x0115
     a9a:	f0 91 16 01 	lds	r31, 0x0116
     a9e:	09 95       	icall
}
     aa0:	cf 91       	pop	r28
     aa2:	df 91       	pop	r29
     aa4:	ff 91       	pop	r31
     aa6:	ef 91       	pop	r30
     aa8:	bf 91       	pop	r27
     aaa:	af 91       	pop	r26
     aac:	9f 91       	pop	r25
     aae:	8f 91       	pop	r24
     ab0:	7f 91       	pop	r23
     ab2:	6f 91       	pop	r22
     ab4:	5f 91       	pop	r21
     ab6:	4f 91       	pop	r20
     ab8:	3f 91       	pop	r19
     aba:	2f 91       	pop	r18
     abc:	0f 90       	pop	r0
     abe:	00 92 5b 00 	sts	0x005B, r0
     ac2:	0f 90       	pop	r0
     ac4:	0f be       	out	0x3f, r0	; 63
     ac6:	0f 90       	pop	r0
     ac8:	1f 90       	pop	r1
     aca:	18 95       	reti

00000acc <__vector_29>:
/**
 * 送信データレジスタ空き割り込み
 */
ISR (USART1_UDRE_vect)
{
     acc:	1f 92       	push	r1
     ace:	0f 92       	push	r0
     ad0:	0f b6       	in	r0, 0x3f	; 63
     ad2:	0f 92       	push	r0
     ad4:	00 90 5b 00 	lds	r0, 0x005B
     ad8:	0f 92       	push	r0
     ada:	11 24       	eor	r1, r1
     adc:	2f 93       	push	r18
     ade:	3f 93       	push	r19
     ae0:	4f 93       	push	r20
     ae2:	5f 93       	push	r21
     ae4:	6f 93       	push	r22
     ae6:	7f 93       	push	r23
     ae8:	8f 93       	push	r24
     aea:	9f 93       	push	r25
     aec:	af 93       	push	r26
     aee:	bf 93       	push	r27
     af0:	ef 93       	push	r30
     af2:	ff 93       	push	r31
     af4:	df 93       	push	r29
     af6:	cf 93       	push	r28
     af8:	cd b7       	in	r28, 0x3d	; 61
     afa:	de b7       	in	r29, 0x3e	; 62
	dataRegisterEmpty1();
     afc:	e0 91 17 01 	lds	r30, 0x0117
     b00:	f0 91 18 01 	lds	r31, 0x0118
     b04:	09 95       	icall
}
     b06:	cf 91       	pop	r28
     b08:	df 91       	pop	r29
     b0a:	ff 91       	pop	r31
     b0c:	ef 91       	pop	r30
     b0e:	bf 91       	pop	r27
     b10:	af 91       	pop	r26
     b12:	9f 91       	pop	r25
     b14:	8f 91       	pop	r24
     b16:	7f 91       	pop	r23
     b18:	6f 91       	pop	r22
     b1a:	5f 91       	pop	r21
     b1c:	4f 91       	pop	r20
     b1e:	3f 91       	pop	r19
     b20:	2f 91       	pop	r18
     b22:	0f 90       	pop	r0
     b24:	00 92 5b 00 	sts	0x005B, r0
     b28:	0f 90       	pop	r0
     b2a:	0f be       	out	0x3f, r0	; 63
     b2c:	0f 90       	pop	r0
     b2e:	1f 90       	pop	r1
     b30:	18 95       	reti

00000b32 <__vector_20>:

/**
 * 受信完了割り込み
 */
ISR (USART0_RX_vect)
{
     b32:	1f 92       	push	r1
     b34:	0f 92       	push	r0
     b36:	0f b6       	in	r0, 0x3f	; 63
     b38:	0f 92       	push	r0
     b3a:	00 90 5b 00 	lds	r0, 0x005B
     b3e:	0f 92       	push	r0
     b40:	11 24       	eor	r1, r1
     b42:	2f 93       	push	r18
     b44:	3f 93       	push	r19
     b46:	4f 93       	push	r20
     b48:	5f 93       	push	r21
     b4a:	6f 93       	push	r22
     b4c:	7f 93       	push	r23
     b4e:	8f 93       	push	r24
     b50:	9f 93       	push	r25
     b52:	af 93       	push	r26
     b54:	bf 93       	push	r27
     b56:	ef 93       	push	r30
     b58:	ff 93       	push	r31
     b5a:	df 93       	push	r29
     b5c:	cf 93       	push	r28
     b5e:	cd b7       	in	r28, 0x3d	; 61
     b60:	de b7       	in	r29, 0x3e	; 62
	receiveComplete0();
     b62:	e0 91 19 01 	lds	r30, 0x0119
     b66:	f0 91 1a 01 	lds	r31, 0x011A
     b6a:	09 95       	icall
}
     b6c:	cf 91       	pop	r28
     b6e:	df 91       	pop	r29
     b70:	ff 91       	pop	r31
     b72:	ef 91       	pop	r30
     b74:	bf 91       	pop	r27
     b76:	af 91       	pop	r26
     b78:	9f 91       	pop	r25
     b7a:	8f 91       	pop	r24
     b7c:	7f 91       	pop	r23
     b7e:	6f 91       	pop	r22
     b80:	5f 91       	pop	r21
     b82:	4f 91       	pop	r20
     b84:	3f 91       	pop	r19
     b86:	2f 91       	pop	r18
     b88:	0f 90       	pop	r0
     b8a:	00 92 5b 00 	sts	0x005B, r0
     b8e:	0f 90       	pop	r0
     b90:	0f be       	out	0x3f, r0	; 63
     b92:	0f 90       	pop	r0
     b94:	1f 90       	pop	r1
     b96:	18 95       	reti

00000b98 <__vector_28>:
/**
 * 受信完了割り込み
 */
ISR (USART1_RX_vect)
{
     b98:	1f 92       	push	r1
     b9a:	0f 92       	push	r0
     b9c:	0f b6       	in	r0, 0x3f	; 63
     b9e:	0f 92       	push	r0
     ba0:	00 90 5b 00 	lds	r0, 0x005B
     ba4:	0f 92       	push	r0
     ba6:	11 24       	eor	r1, r1
     ba8:	2f 93       	push	r18
     baa:	3f 93       	push	r19
     bac:	4f 93       	push	r20
     bae:	5f 93       	push	r21
     bb0:	6f 93       	push	r22
     bb2:	7f 93       	push	r23
     bb4:	8f 93       	push	r24
     bb6:	9f 93       	push	r25
     bb8:	af 93       	push	r26
     bba:	bf 93       	push	r27
     bbc:	ef 93       	push	r30
     bbe:	ff 93       	push	r31
     bc0:	df 93       	push	r29
     bc2:	cf 93       	push	r28
     bc4:	cd b7       	in	r28, 0x3d	; 61
     bc6:	de b7       	in	r29, 0x3e	; 62
	receiveComplete1();
     bc8:	e0 91 1b 01 	lds	r30, 0x011B
     bcc:	f0 91 1c 01 	lds	r31, 0x011C
     bd0:	09 95       	icall
}
     bd2:	cf 91       	pop	r28
     bd4:	df 91       	pop	r29
     bd6:	ff 91       	pop	r31
     bd8:	ef 91       	pop	r30
     bda:	bf 91       	pop	r27
     bdc:	af 91       	pop	r26
     bde:	9f 91       	pop	r25
     be0:	8f 91       	pop	r24
     be2:	7f 91       	pop	r23
     be4:	6f 91       	pop	r22
     be6:	5f 91       	pop	r21
     be8:	4f 91       	pop	r20
     bea:	3f 91       	pop	r19
     bec:	2f 91       	pop	r18
     bee:	0f 90       	pop	r0
     bf0:	00 92 5b 00 	sts	0x005B, r0
     bf4:	0f 90       	pop	r0
     bf6:	0f be       	out	0x3f, r0	; 63
     bf8:	0f 90       	pop	r0
     bfa:	1f 90       	pop	r1
     bfc:	18 95       	reti

00000bfe <setMU2PutFunc>:
/**
 * シリアル送信関数用ポインタセッター関数
 * @param[in] f {void(*)(void)}
 */
void setMU2PutFunc(void(*f)(uint8_t))
{
     bfe:	df 93       	push	r29
     c00:	cf 93       	push	r28
     c02:	00 d0       	rcall	.+0      	; 0xc04 <setMU2PutFunc+0x6>
     c04:	cd b7       	in	r28, 0x3d	; 61
     c06:	de b7       	in	r29, 0x3e	; 62
     c08:	9a 83       	std	Y+2, r25	; 0x02
     c0a:	89 83       	std	Y+1, r24	; 0x01
	put = f;
     c0c:	89 81       	ldd	r24, Y+1	; 0x01
     c0e:	9a 81       	ldd	r25, Y+2	; 0x02
     c10:	90 93 1e 01 	sts	0x011E, r25
     c14:	80 93 1d 01 	sts	0x011D, r24
}
     c18:	0f 90       	pop	r0
     c1a:	0f 90       	pop	r0
     c1c:	cf 91       	pop	r28
     c1e:	df 91       	pop	r29
     c20:	08 95       	ret

00000c22 <setMU2GetFunc>:
/**
 * シリアル受信関数用ポインタセッター関数
 * @param[in] f {uint8_t(*)(void)}
 */
void setMU2GetFunc(uint8_t(*f)(void))
{
     c22:	df 93       	push	r29
     c24:	cf 93       	push	r28
     c26:	00 d0       	rcall	.+0      	; 0xc28 <setMU2GetFunc+0x6>
     c28:	cd b7       	in	r28, 0x3d	; 61
     c2a:	de b7       	in	r29, 0x3e	; 62
     c2c:	9a 83       	std	Y+2, r25	; 0x02
     c2e:	89 83       	std	Y+1, r24	; 0x01
	get = f;
     c30:	89 81       	ldd	r24, Y+1	; 0x01
     c32:	9a 81       	ldd	r25, Y+2	; 0x02
     c34:	90 93 20 01 	sts	0x0120, r25
     c38:	80 93 1f 01 	sts	0x011F, r24
}
     c3c:	0f 90       	pop	r0
     c3e:	0f 90       	pop	r0
     c40:	cf 91       	pop	r28
     c42:	df 91       	pop	r29
     c44:	08 95       	ret

00000c46 <byteToString>:
 * 1Byte->16進文字列変換関数
 * @param[in] byte {uint8_t} 変換対象データ
 * @param[out] string {char*} 変換後文字列格納先ポインタ
 */
void byteToString(uint8_t byte, char* string)
{
     c46:	df 93       	push	r29
     c48:	cf 93       	push	r28
     c4a:	00 d0       	rcall	.+0      	; 0xc4c <byteToString+0x6>
     c4c:	0f 92       	push	r0
     c4e:	cd b7       	in	r28, 0x3d	; 61
     c50:	de b7       	in	r29, 0x3e	; 62
     c52:	89 83       	std	Y+1, r24	; 0x01
     c54:	7b 83       	std	Y+3, r23	; 0x03
     c56:	6a 83       	std	Y+2, r22	; 0x02
	string[0] = ascii[ ( byte >> 4 ) & 0x0F ];
     c58:	89 81       	ldd	r24, Y+1	; 0x01
     c5a:	82 95       	swap	r24
     c5c:	8f 70       	andi	r24, 0x0F	; 15
     c5e:	88 2f       	mov	r24, r24
     c60:	90 e0       	ldi	r25, 0x00	; 0
     c62:	fc 01       	movw	r30, r24
     c64:	e0 50       	subi	r30, 0x00	; 0
     c66:	ff 4f       	sbci	r31, 0xFF	; 255
     c68:	80 81       	ld	r24, Z
     c6a:	ea 81       	ldd	r30, Y+2	; 0x02
     c6c:	fb 81       	ldd	r31, Y+3	; 0x03
     c6e:	80 83       	st	Z, r24
	string[1] = ascii[ byte & 0x0F ];
     c70:	8a 81       	ldd	r24, Y+2	; 0x02
     c72:	9b 81       	ldd	r25, Y+3	; 0x03
     c74:	dc 01       	movw	r26, r24
     c76:	11 96       	adiw	r26, 0x01	; 1
     c78:	89 81       	ldd	r24, Y+1	; 0x01
     c7a:	88 2f       	mov	r24, r24
     c7c:	90 e0       	ldi	r25, 0x00	; 0
     c7e:	8f 70       	andi	r24, 0x0F	; 15
     c80:	90 70       	andi	r25, 0x00	; 0
     c82:	fc 01       	movw	r30, r24
     c84:	e0 50       	subi	r30, 0x00	; 0
     c86:	ff 4f       	sbci	r31, 0xFF	; 255
     c88:	80 81       	ld	r24, Z
     c8a:	8c 93       	st	X, r24
	string[2] = '\0';
     c8c:	8a 81       	ldd	r24, Y+2	; 0x02
     c8e:	9b 81       	ldd	r25, Y+3	; 0x03
     c90:	fc 01       	movw	r30, r24
     c92:	32 96       	adiw	r30, 0x02	; 2
     c94:	10 82       	st	Z, r1
}
     c96:	0f 90       	pop	r0
     c98:	0f 90       	pop	r0
     c9a:	0f 90       	pop	r0
     c9c:	cf 91       	pop	r28
     c9e:	df 91       	pop	r29
     ca0:	08 95       	ret

00000ca2 <mu2Command>:
 * MU2にコマンドを送信する関数
 * @param[in] command {const char*} MU2に送信するコマンド
 * @param[in] values {uint8_t*} コマンドに付加するデータ
 */
bool mu2Command(const char* command, uint8_t* values)
{
     ca2:	0f 93       	push	r16
     ca4:	1f 93       	push	r17
     ca6:	df 93       	push	r29
     ca8:	cf 93       	push	r28
     caa:	cd b7       	in	r28, 0x3d	; 61
     cac:	de b7       	in	r29, 0x3e	; 62
     cae:	60 97       	sbiw	r28, 0x10	; 16
     cb0:	0f b6       	in	r0, 0x3f	; 63
     cb2:	f8 94       	cli
     cb4:	de bf       	out	0x3e, r29	; 62
     cb6:	0f be       	out	0x3f, r0	; 63
     cb8:	cd bf       	out	0x3d, r28	; 61
     cba:	9d 87       	std	Y+13, r25	; 0x0d
     cbc:	8c 87       	std	Y+12, r24	; 0x0c
     cbe:	7f 87       	std	Y+15, r23	; 0x0f
     cc0:	6e 87       	std	Y+14, r22	; 0x0e
	uint8_t i, recv[10];
	
	put('@');
     cc2:	e0 91 1d 01 	lds	r30, 0x011D
     cc6:	f0 91 1e 01 	lds	r31, 0x011E
     cca:	80 e4       	ldi	r24, 0x40	; 64
     ccc:	09 95       	icall
	put(command[0]);
     cce:	20 91 1d 01 	lds	r18, 0x011D
     cd2:	30 91 1e 01 	lds	r19, 0x011E
     cd6:	ec 85       	ldd	r30, Y+12	; 0x0c
     cd8:	fd 85       	ldd	r31, Y+13	; 0x0d
     cda:	80 81       	ld	r24, Z
     cdc:	f9 01       	movw	r30, r18
     cde:	09 95       	icall
	put(command[1]);
     ce0:	20 91 1d 01 	lds	r18, 0x011D
     ce4:	30 91 1e 01 	lds	r19, 0x011E
     ce8:	8c 85       	ldd	r24, Y+12	; 0x0c
     cea:	9d 85       	ldd	r25, Y+13	; 0x0d
     cec:	fc 01       	movw	r30, r24
     cee:	31 96       	adiw	r30, 0x01	; 1
     cf0:	80 81       	ld	r24, Z
     cf2:	f9 01       	movw	r30, r18
     cf4:	09 95       	icall
     cf6:	0e c0       	rjmp	.+28     	; 0xd14 <mu2Command+0x72>
	for ( ; *values != '\0'; values++ ) {
		put(*values);
     cf8:	20 91 1d 01 	lds	r18, 0x011D
     cfc:	30 91 1e 01 	lds	r19, 0x011E
     d00:	ee 85       	ldd	r30, Y+14	; 0x0e
     d02:	ff 85       	ldd	r31, Y+15	; 0x0f
     d04:	80 81       	ld	r24, Z
     d06:	f9 01       	movw	r30, r18
     d08:	09 95       	icall
	uint8_t i, recv[10];
	
	put('@');
	put(command[0]);
	put(command[1]);
	for ( ; *values != '\0'; values++ ) {
     d0a:	8e 85       	ldd	r24, Y+14	; 0x0e
     d0c:	9f 85       	ldd	r25, Y+15	; 0x0f
     d0e:	01 96       	adiw	r24, 0x01	; 1
     d10:	9f 87       	std	Y+15, r25	; 0x0f
     d12:	8e 87       	std	Y+14, r24	; 0x0e
     d14:	ee 85       	ldd	r30, Y+14	; 0x0e
     d16:	ff 85       	ldd	r31, Y+15	; 0x0f
     d18:	80 81       	ld	r24, Z
     d1a:	88 23       	and	r24, r24
     d1c:	69 f7       	brne	.-38     	; 0xcf8 <mu2Command+0x56>
		put(*values);
	}
	put(0x0d);
     d1e:	e0 91 1d 01 	lds	r30, 0x011D
     d22:	f0 91 1e 01 	lds	r31, 0x011E
     d26:	8d e0       	ldi	r24, 0x0D	; 13
     d28:	09 95       	icall
	put(0x0a);
     d2a:	e0 91 1d 01 	lds	r30, 0x011D
     d2e:	f0 91 1e 01 	lds	r31, 0x011E
     d32:	8a e0       	ldi	r24, 0x0A	; 10
     d34:	09 95       	icall
	
	for ( i = 0; i < 10; i++ ){
     d36:	19 82       	std	Y+1, r1	; 0x01
     d38:	2e c0       	rjmp	.+92     	; 0xd96 <mu2Command+0xf4>
		recv[i] = get();
     d3a:	89 81       	ldd	r24, Y+1	; 0x01
     d3c:	08 2f       	mov	r16, r24
     d3e:	10 e0       	ldi	r17, 0x00	; 0
     d40:	e0 91 1f 01 	lds	r30, 0x011F
     d44:	f0 91 20 01 	lds	r31, 0x0120
     d48:	09 95       	icall
     d4a:	28 2f       	mov	r18, r24
     d4c:	ce 01       	movw	r24, r28
     d4e:	02 96       	adiw	r24, 0x02	; 2
     d50:	fc 01       	movw	r30, r24
     d52:	e0 0f       	add	r30, r16
     d54:	f1 1f       	adc	r31, r17
     d56:	20 83       	st	Z, r18
		if( i > 0 && recv[i-1] == 0x0d && recv[i] == 0x0a ) {
     d58:	89 81       	ldd	r24, Y+1	; 0x01
     d5a:	88 23       	and	r24, r24
     d5c:	c9 f0       	breq	.+50     	; 0xd90 <mu2Command+0xee>
     d5e:	89 81       	ldd	r24, Y+1	; 0x01
     d60:	88 2f       	mov	r24, r24
     d62:	90 e0       	ldi	r25, 0x00	; 0
     d64:	9c 01       	movw	r18, r24
     d66:	21 50       	subi	r18, 0x01	; 1
     d68:	30 40       	sbci	r19, 0x00	; 0
     d6a:	ce 01       	movw	r24, r28
     d6c:	02 96       	adiw	r24, 0x02	; 2
     d6e:	fc 01       	movw	r30, r24
     d70:	e2 0f       	add	r30, r18
     d72:	f3 1f       	adc	r31, r19
     d74:	80 81       	ld	r24, Z
     d76:	8d 30       	cpi	r24, 0x0D	; 13
     d78:	59 f4       	brne	.+22     	; 0xd90 <mu2Command+0xee>
     d7a:	89 81       	ldd	r24, Y+1	; 0x01
     d7c:	28 2f       	mov	r18, r24
     d7e:	30 e0       	ldi	r19, 0x00	; 0
     d80:	ce 01       	movw	r24, r28
     d82:	02 96       	adiw	r24, 0x02	; 2
     d84:	fc 01       	movw	r30, r24
     d86:	e2 0f       	add	r30, r18
     d88:	f3 1f       	adc	r31, r19
     d8a:	80 81       	ld	r24, Z
     d8c:	8a 30       	cpi	r24, 0x0A	; 10
     d8e:	31 f0       	breq	.+12     	; 0xd9c <mu2Command+0xfa>
		put(*values);
	}
	put(0x0d);
	put(0x0a);
	
	for ( i = 0; i < 10; i++ ){
     d90:	89 81       	ldd	r24, Y+1	; 0x01
     d92:	8f 5f       	subi	r24, 0xFF	; 255
     d94:	89 83       	std	Y+1, r24	; 0x01
     d96:	89 81       	ldd	r24, Y+1	; 0x01
     d98:	8a 30       	cpi	r24, 0x0A	; 10
     d9a:	78 f2       	brcs	.-98     	; 0xd3a <mu2Command+0x98>
		recv[i] = get();
		if( i > 0 && recv[i-1] == 0x0d && recv[i] == 0x0a ) {
			break;
		}
	}
	if ( recv[1] == 'E' && recv[2] == 'R' ) {
     d9c:	8b 81       	ldd	r24, Y+3	; 0x03
     d9e:	85 34       	cpi	r24, 0x45	; 69
     da0:	31 f4       	brne	.+12     	; 0xdae <mu2Command+0x10c>
     da2:	8c 81       	ldd	r24, Y+4	; 0x04
     da4:	82 35       	cpi	r24, 0x52	; 82
     da6:	19 f4       	brne	.+6      	; 0xdae <mu2Command+0x10c>
		return true;
     da8:	81 e0       	ldi	r24, 0x01	; 1
     daa:	88 8b       	std	Y+16, r24	; 0x10
     dac:	01 c0       	rjmp	.+2      	; 0xdb0 <mu2Command+0x10e>
	}
	
	return false;
     dae:	18 8a       	std	Y+16, r1	; 0x10
     db0:	88 89       	ldd	r24, Y+16	; 0x10
}
     db2:	60 96       	adiw	r28, 0x10	; 16
     db4:	0f b6       	in	r0, 0x3f	; 63
     db6:	f8 94       	cli
     db8:	de bf       	out	0x3e, r29	; 62
     dba:	0f be       	out	0x3f, r0	; 63
     dbc:	cd bf       	out	0x3d, r28	; 61
     dbe:	cf 91       	pop	r28
     dc0:	df 91       	pop	r29
     dc2:	1f 91       	pop	r17
     dc4:	0f 91       	pop	r16
     dc6:	08 95       	ret

00000dc8 <mu2CommandToEEPROM>:
 * MU2にコマンドを送信し，MU2のEEPROMに書きこむ関数
 * @param[in] command {const char*} MU2に送信するコマンド
 * @param[in] values {uint8_t*} コマンドに付加するデータ
 */
bool mu2CommandToEEPROM(const char *command, uint8_t* values)
{
     dc8:	0f 93       	push	r16
     dca:	1f 93       	push	r17
     dcc:	df 93       	push	r29
     dce:	cf 93       	push	r28
     dd0:	cd b7       	in	r28, 0x3d	; 61
     dd2:	de b7       	in	r29, 0x3e	; 62
     dd4:	60 97       	sbiw	r28, 0x10	; 16
     dd6:	0f b6       	in	r0, 0x3f	; 63
     dd8:	f8 94       	cli
     dda:	de bf       	out	0x3e, r29	; 62
     ddc:	0f be       	out	0x3f, r0	; 63
     dde:	cd bf       	out	0x3d, r28	; 61
     de0:	9d 87       	std	Y+13, r25	; 0x0d
     de2:	8c 87       	std	Y+12, r24	; 0x0c
     de4:	7f 87       	std	Y+15, r23	; 0x0f
     de6:	6e 87       	std	Y+14, r22	; 0x0e
	uint8_t i, recv[10];
	
	put('@');
     de8:	e0 91 1d 01 	lds	r30, 0x011D
     dec:	f0 91 1e 01 	lds	r31, 0x011E
     df0:	80 e4       	ldi	r24, 0x40	; 64
     df2:	09 95       	icall
	put(command[0]);
     df4:	20 91 1d 01 	lds	r18, 0x011D
     df8:	30 91 1e 01 	lds	r19, 0x011E
     dfc:	ec 85       	ldd	r30, Y+12	; 0x0c
     dfe:	fd 85       	ldd	r31, Y+13	; 0x0d
     e00:	80 81       	ld	r24, Z
     e02:	f9 01       	movw	r30, r18
     e04:	09 95       	icall
	put(command[1]);
     e06:	20 91 1d 01 	lds	r18, 0x011D
     e0a:	30 91 1e 01 	lds	r19, 0x011E
     e0e:	8c 85       	ldd	r24, Y+12	; 0x0c
     e10:	9d 85       	ldd	r25, Y+13	; 0x0d
     e12:	fc 01       	movw	r30, r24
     e14:	31 96       	adiw	r30, 0x01	; 1
     e16:	80 81       	ld	r24, Z
     e18:	f9 01       	movw	r30, r18
     e1a:	09 95       	icall
     e1c:	0e c0       	rjmp	.+28     	; 0xe3a <mu2CommandToEEPROM+0x72>
	for ( ; *values != '\0'; values++ ) {
		put(*values);
     e1e:	20 91 1d 01 	lds	r18, 0x011D
     e22:	30 91 1e 01 	lds	r19, 0x011E
     e26:	ee 85       	ldd	r30, Y+14	; 0x0e
     e28:	ff 85       	ldd	r31, Y+15	; 0x0f
     e2a:	80 81       	ld	r24, Z
     e2c:	f9 01       	movw	r30, r18
     e2e:	09 95       	icall
	uint8_t i, recv[10];
	
	put('@');
	put(command[0]);
	put(command[1]);
	for ( ; *values != '\0'; values++ ) {
     e30:	8e 85       	ldd	r24, Y+14	; 0x0e
     e32:	9f 85       	ldd	r25, Y+15	; 0x0f
     e34:	01 96       	adiw	r24, 0x01	; 1
     e36:	9f 87       	std	Y+15, r25	; 0x0f
     e38:	8e 87       	std	Y+14, r24	; 0x0e
     e3a:	ee 85       	ldd	r30, Y+14	; 0x0e
     e3c:	ff 85       	ldd	r31, Y+15	; 0x0f
     e3e:	80 81       	ld	r24, Z
     e40:	88 23       	and	r24, r24
     e42:	69 f7       	brne	.-38     	; 0xe1e <mu2CommandToEEPROM+0x56>
		put(*values);
	}
	put('/');
     e44:	e0 91 1d 01 	lds	r30, 0x011D
     e48:	f0 91 1e 01 	lds	r31, 0x011E
     e4c:	8f e2       	ldi	r24, 0x2F	; 47
     e4e:	09 95       	icall
	put('W');
     e50:	e0 91 1d 01 	lds	r30, 0x011D
     e54:	f0 91 1e 01 	lds	r31, 0x011E
     e58:	87 e5       	ldi	r24, 0x57	; 87
     e5a:	09 95       	icall
	put(0x0d);
     e5c:	e0 91 1d 01 	lds	r30, 0x011D
     e60:	f0 91 1e 01 	lds	r31, 0x011E
     e64:	8d e0       	ldi	r24, 0x0D	; 13
     e66:	09 95       	icall
	put(0x0a);
     e68:	e0 91 1d 01 	lds	r30, 0x011D
     e6c:	f0 91 1e 01 	lds	r31, 0x011E
     e70:	8a e0       	ldi	r24, 0x0A	; 10
     e72:	09 95       	icall
	
	for ( i = 0; i < 10; i++ ){
     e74:	19 82       	std	Y+1, r1	; 0x01
     e76:	2e c0       	rjmp	.+92     	; 0xed4 <mu2CommandToEEPROM+0x10c>
		recv[i] = get();
     e78:	89 81       	ldd	r24, Y+1	; 0x01
     e7a:	08 2f       	mov	r16, r24
     e7c:	10 e0       	ldi	r17, 0x00	; 0
     e7e:	e0 91 1f 01 	lds	r30, 0x011F
     e82:	f0 91 20 01 	lds	r31, 0x0120
     e86:	09 95       	icall
     e88:	28 2f       	mov	r18, r24
     e8a:	ce 01       	movw	r24, r28
     e8c:	02 96       	adiw	r24, 0x02	; 2
     e8e:	fc 01       	movw	r30, r24
     e90:	e0 0f       	add	r30, r16
     e92:	f1 1f       	adc	r31, r17
     e94:	20 83       	st	Z, r18
		if( i > 0 && recv[i-1] == 0x0d && recv[i] == 0x0a ) {
     e96:	89 81       	ldd	r24, Y+1	; 0x01
     e98:	88 23       	and	r24, r24
     e9a:	c9 f0       	breq	.+50     	; 0xece <mu2CommandToEEPROM+0x106>
     e9c:	89 81       	ldd	r24, Y+1	; 0x01
     e9e:	88 2f       	mov	r24, r24
     ea0:	90 e0       	ldi	r25, 0x00	; 0
     ea2:	9c 01       	movw	r18, r24
     ea4:	21 50       	subi	r18, 0x01	; 1
     ea6:	30 40       	sbci	r19, 0x00	; 0
     ea8:	ce 01       	movw	r24, r28
     eaa:	02 96       	adiw	r24, 0x02	; 2
     eac:	fc 01       	movw	r30, r24
     eae:	e2 0f       	add	r30, r18
     eb0:	f3 1f       	adc	r31, r19
     eb2:	80 81       	ld	r24, Z
     eb4:	8d 30       	cpi	r24, 0x0D	; 13
     eb6:	59 f4       	brne	.+22     	; 0xece <mu2CommandToEEPROM+0x106>
     eb8:	89 81       	ldd	r24, Y+1	; 0x01
     eba:	28 2f       	mov	r18, r24
     ebc:	30 e0       	ldi	r19, 0x00	; 0
     ebe:	ce 01       	movw	r24, r28
     ec0:	02 96       	adiw	r24, 0x02	; 2
     ec2:	fc 01       	movw	r30, r24
     ec4:	e2 0f       	add	r30, r18
     ec6:	f3 1f       	adc	r31, r19
     ec8:	80 81       	ld	r24, Z
     eca:	8a 30       	cpi	r24, 0x0A	; 10
     ecc:	31 f0       	breq	.+12     	; 0xeda <mu2CommandToEEPROM+0x112>
	put('/');
	put('W');
	put(0x0d);
	put(0x0a);
	
	for ( i = 0; i < 10; i++ ){
     ece:	89 81       	ldd	r24, Y+1	; 0x01
     ed0:	8f 5f       	subi	r24, 0xFF	; 255
     ed2:	89 83       	std	Y+1, r24	; 0x01
     ed4:	89 81       	ldd	r24, Y+1	; 0x01
     ed6:	8a 30       	cpi	r24, 0x0A	; 10
     ed8:	78 f2       	brcs	.-98     	; 0xe78 <mu2CommandToEEPROM+0xb0>
		recv[i] = get();
		if( i > 0 && recv[i-1] == 0x0d && recv[i] == 0x0a ) {
			break;
		}
	}
	if ( recv[1] == 'E' && recv[2] == 'R' ) {
     eda:	8b 81       	ldd	r24, Y+3	; 0x03
     edc:	85 34       	cpi	r24, 0x45	; 69
     ede:	31 f4       	brne	.+12     	; 0xeec <mu2CommandToEEPROM+0x124>
     ee0:	8c 81       	ldd	r24, Y+4	; 0x04
     ee2:	82 35       	cpi	r24, 0x52	; 82
     ee4:	19 f4       	brne	.+6      	; 0xeec <mu2CommandToEEPROM+0x124>
		return true;
     ee6:	81 e0       	ldi	r24, 0x01	; 1
     ee8:	88 8b       	std	Y+16, r24	; 0x10
     eea:	01 c0       	rjmp	.+2      	; 0xeee <mu2CommandToEEPROM+0x126>
	}
	
	return false;
     eec:	18 8a       	std	Y+16, r1	; 0x10
     eee:	88 89       	ldd	r24, Y+16	; 0x10
}
     ef0:	60 96       	adiw	r28, 0x10	; 16
     ef2:	0f b6       	in	r0, 0x3f	; 63
     ef4:	f8 94       	cli
     ef6:	de bf       	out	0x3e, r29	; 62
     ef8:	0f be       	out	0x3f, r0	; 63
     efa:	cd bf       	out	0x3d, r28	; 61
     efc:	cf 91       	pop	r28
     efe:	df 91       	pop	r29
     f00:	1f 91       	pop	r17
     f02:	0f 91       	pop	r16
     f04:	08 95       	ret

00000f06 <mu2TransmitData>:
 * MU2でデータを送信する関数
 * @param[in] command {const char*} MU2に送信するコマンド
 * @param[in] values {uint8_t*} コマンドに付加するデータ
 */
bool mu2TransmitData(uint8_t* values, uint8_t size)
{
     f06:	0f 93       	push	r16
     f08:	1f 93       	push	r17
     f0a:	df 93       	push	r29
     f0c:	cf 93       	push	r28
     f0e:	cd b7       	in	r28, 0x3d	; 61
     f10:	de b7       	in	r29, 0x3e	; 62
     f12:	62 97       	sbiw	r28, 0x12	; 18
     f14:	0f b6       	in	r0, 0x3f	; 63
     f16:	f8 94       	cli
     f18:	de bf       	out	0x3e, r29	; 62
     f1a:	0f be       	out	0x3f, r0	; 63
     f1c:	cd bf       	out	0x3d, r28	; 61
     f1e:	98 8b       	std	Y+16, r25	; 0x10
     f20:	8f 87       	std	Y+15, r24	; 0x0f
     f22:	69 8b       	std	Y+17, r22	; 0x11
	uint8_t i,recv[10];
	char strSize[3];
	byteToString(size,strSize);
     f24:	9e 01       	movw	r18, r28
     f26:	24 5f       	subi	r18, 0xF4	; 244
     f28:	3f 4f       	sbci	r19, 0xFF	; 255
     f2a:	89 89       	ldd	r24, Y+17	; 0x11
     f2c:	b9 01       	movw	r22, r18
     f2e:	0e 94 23 06 	call	0xc46	; 0xc46 <byteToString>
	put('@');
     f32:	e0 91 1d 01 	lds	r30, 0x011D
     f36:	f0 91 1e 01 	lds	r31, 0x011E
     f3a:	80 e4       	ldi	r24, 0x40	; 64
     f3c:	09 95       	icall
	put('D');
     f3e:	e0 91 1d 01 	lds	r30, 0x011D
     f42:	f0 91 1e 01 	lds	r31, 0x011E
     f46:	84 e4       	ldi	r24, 0x44	; 68
     f48:	09 95       	icall
	put('T');
     f4a:	e0 91 1d 01 	lds	r30, 0x011D
     f4e:	f0 91 1e 01 	lds	r31, 0x011E
     f52:	84 e5       	ldi	r24, 0x54	; 84
     f54:	09 95       	icall
	put(strSize[0]);
     f56:	e0 91 1d 01 	lds	r30, 0x011D
     f5a:	f0 91 1e 01 	lds	r31, 0x011E
     f5e:	8c 85       	ldd	r24, Y+12	; 0x0c
     f60:	09 95       	icall
	put(strSize[1]);
     f62:	e0 91 1d 01 	lds	r30, 0x011D
     f66:	f0 91 1e 01 	lds	r31, 0x011E
     f6a:	8d 85       	ldd	r24, Y+13	; 0x0d
     f6c:	09 95       	icall
	for ( i = 0; i < size; i++ ) {
     f6e:	19 82       	std	Y+1, r1	; 0x01
     f70:	12 c0       	rjmp	.+36     	; 0xf96 <mu2TransmitData+0x90>
		put(values[i]);
     f72:	40 91 1d 01 	lds	r20, 0x011D
     f76:	50 91 1e 01 	lds	r21, 0x011E
     f7a:	89 81       	ldd	r24, Y+1	; 0x01
     f7c:	28 2f       	mov	r18, r24
     f7e:	30 e0       	ldi	r19, 0x00	; 0
     f80:	8f 85       	ldd	r24, Y+15	; 0x0f
     f82:	98 89       	ldd	r25, Y+16	; 0x10
     f84:	fc 01       	movw	r30, r24
     f86:	e2 0f       	add	r30, r18
     f88:	f3 1f       	adc	r31, r19
     f8a:	80 81       	ld	r24, Z
     f8c:	fa 01       	movw	r30, r20
     f8e:	09 95       	icall
	put('@');
	put('D');
	put('T');
	put(strSize[0]);
	put(strSize[1]);
	for ( i = 0; i < size; i++ ) {
     f90:	89 81       	ldd	r24, Y+1	; 0x01
     f92:	8f 5f       	subi	r24, 0xFF	; 255
     f94:	89 83       	std	Y+1, r24	; 0x01
     f96:	99 81       	ldd	r25, Y+1	; 0x01
     f98:	89 89       	ldd	r24, Y+17	; 0x11
     f9a:	98 17       	cp	r25, r24
     f9c:	50 f3       	brcs	.-44     	; 0xf72 <mu2TransmitData+0x6c>
		put(values[i]);
	}
	put(0x0d);
     f9e:	e0 91 1d 01 	lds	r30, 0x011D
     fa2:	f0 91 1e 01 	lds	r31, 0x011E
     fa6:	8d e0       	ldi	r24, 0x0D	; 13
     fa8:	09 95       	icall
	put(0x0a);
     faa:	e0 91 1d 01 	lds	r30, 0x011D
     fae:	f0 91 1e 01 	lds	r31, 0x011E
     fb2:	8a e0       	ldi	r24, 0x0A	; 10
     fb4:	09 95       	icall

	for ( i = 0; i < 10; i++ ){
     fb6:	19 82       	std	Y+1, r1	; 0x01
     fb8:	2e c0       	rjmp	.+92     	; 0x1016 <mu2TransmitData+0x110>
		recv[i] = get();
     fba:	89 81       	ldd	r24, Y+1	; 0x01
     fbc:	08 2f       	mov	r16, r24
     fbe:	10 e0       	ldi	r17, 0x00	; 0
     fc0:	e0 91 1f 01 	lds	r30, 0x011F
     fc4:	f0 91 20 01 	lds	r31, 0x0120
     fc8:	09 95       	icall
     fca:	28 2f       	mov	r18, r24
     fcc:	ce 01       	movw	r24, r28
     fce:	02 96       	adiw	r24, 0x02	; 2
     fd0:	fc 01       	movw	r30, r24
     fd2:	e0 0f       	add	r30, r16
     fd4:	f1 1f       	adc	r31, r17
     fd6:	20 83       	st	Z, r18
		if( i > 0 && recv[i-1] == 0x0d && recv[i] == 0x0a ) {
     fd8:	89 81       	ldd	r24, Y+1	; 0x01
     fda:	88 23       	and	r24, r24
     fdc:	c9 f0       	breq	.+50     	; 0x1010 <mu2TransmitData+0x10a>
     fde:	89 81       	ldd	r24, Y+1	; 0x01
     fe0:	88 2f       	mov	r24, r24
     fe2:	90 e0       	ldi	r25, 0x00	; 0
     fe4:	9c 01       	movw	r18, r24
     fe6:	21 50       	subi	r18, 0x01	; 1
     fe8:	30 40       	sbci	r19, 0x00	; 0
     fea:	ce 01       	movw	r24, r28
     fec:	02 96       	adiw	r24, 0x02	; 2
     fee:	fc 01       	movw	r30, r24
     ff0:	e2 0f       	add	r30, r18
     ff2:	f3 1f       	adc	r31, r19
     ff4:	80 81       	ld	r24, Z
     ff6:	8d 30       	cpi	r24, 0x0D	; 13
     ff8:	59 f4       	brne	.+22     	; 0x1010 <mu2TransmitData+0x10a>
     ffa:	89 81       	ldd	r24, Y+1	; 0x01
     ffc:	28 2f       	mov	r18, r24
     ffe:	30 e0       	ldi	r19, 0x00	; 0
    1000:	ce 01       	movw	r24, r28
    1002:	02 96       	adiw	r24, 0x02	; 2
    1004:	fc 01       	movw	r30, r24
    1006:	e2 0f       	add	r30, r18
    1008:	f3 1f       	adc	r31, r19
    100a:	80 81       	ld	r24, Z
    100c:	8a 30       	cpi	r24, 0x0A	; 10
    100e:	31 f0       	breq	.+12     	; 0x101c <mu2TransmitData+0x116>
		put(values[i]);
	}
	put(0x0d);
	put(0x0a);

	for ( i = 0; i < 10; i++ ){
    1010:	89 81       	ldd	r24, Y+1	; 0x01
    1012:	8f 5f       	subi	r24, 0xFF	; 255
    1014:	89 83       	std	Y+1, r24	; 0x01
    1016:	89 81       	ldd	r24, Y+1	; 0x01
    1018:	8a 30       	cpi	r24, 0x0A	; 10
    101a:	78 f2       	brcs	.-98     	; 0xfba <mu2TransmitData+0xb4>
		recv[i] = get();
		if( i > 0 && recv[i-1] == 0x0d && recv[i] == 0x0a ) {
			break;
		}
	}
	if ( recv[1] == 'E' && recv[2] == 'R' ) {
    101c:	8b 81       	ldd	r24, Y+3	; 0x03
    101e:	85 34       	cpi	r24, 0x45	; 69
    1020:	31 f4       	brne	.+12     	; 0x102e <mu2TransmitData+0x128>
    1022:	8c 81       	ldd	r24, Y+4	; 0x04
    1024:	82 35       	cpi	r24, 0x52	; 82
    1026:	19 f4       	brne	.+6      	; 0x102e <mu2TransmitData+0x128>
		return true;
    1028:	81 e0       	ldi	r24, 0x01	; 1
    102a:	8a 8b       	std	Y+18, r24	; 0x12
    102c:	01 c0       	rjmp	.+2      	; 0x1030 <mu2TransmitData+0x12a>
	}
	
	return false;
    102e:	1a 8a       	std	Y+18, r1	; 0x12
    1030:	8a 89       	ldd	r24, Y+18	; 0x12
}
    1032:	62 96       	adiw	r28, 0x12	; 18
    1034:	0f b6       	in	r0, 0x3f	; 63
    1036:	f8 94       	cli
    1038:	de bf       	out	0x3e, r29	; 62
    103a:	0f be       	out	0x3f, r0	; 63
    103c:	cd bf       	out	0x3d, r28	; 61
    103e:	cf 91       	pop	r28
    1040:	df 91       	pop	r29
    1042:	1f 91       	pop	r17
    1044:	0f 91       	pop	r16
    1046:	08 95       	ret

00001048 <__udivmodhi4>:
    1048:	aa 1b       	sub	r26, r26
    104a:	bb 1b       	sub	r27, r27
    104c:	51 e1       	ldi	r21, 0x11	; 17
    104e:	07 c0       	rjmp	.+14     	; 0x105e <__udivmodhi4_ep>

00001050 <__udivmodhi4_loop>:
    1050:	aa 1f       	adc	r26, r26
    1052:	bb 1f       	adc	r27, r27
    1054:	a6 17       	cp	r26, r22
    1056:	b7 07       	cpc	r27, r23
    1058:	10 f0       	brcs	.+4      	; 0x105e <__udivmodhi4_ep>
    105a:	a6 1b       	sub	r26, r22
    105c:	b7 0b       	sbc	r27, r23

0000105e <__udivmodhi4_ep>:
    105e:	88 1f       	adc	r24, r24
    1060:	99 1f       	adc	r25, r25
    1062:	5a 95       	dec	r21
    1064:	a9 f7       	brne	.-22     	; 0x1050 <__udivmodhi4_loop>
    1066:	80 95       	com	r24
    1068:	90 95       	com	r25
    106a:	bc 01       	movw	r22, r24
    106c:	cd 01       	movw	r24, r26
    106e:	08 95       	ret

00001070 <__udivmodsi4>:
    1070:	a1 e2       	ldi	r26, 0x21	; 33
    1072:	1a 2e       	mov	r1, r26
    1074:	aa 1b       	sub	r26, r26
    1076:	bb 1b       	sub	r27, r27
    1078:	fd 01       	movw	r30, r26
    107a:	0d c0       	rjmp	.+26     	; 0x1096 <__udivmodsi4_ep>

0000107c <__udivmodsi4_loop>:
    107c:	aa 1f       	adc	r26, r26
    107e:	bb 1f       	adc	r27, r27
    1080:	ee 1f       	adc	r30, r30
    1082:	ff 1f       	adc	r31, r31
    1084:	a2 17       	cp	r26, r18
    1086:	b3 07       	cpc	r27, r19
    1088:	e4 07       	cpc	r30, r20
    108a:	f5 07       	cpc	r31, r21
    108c:	20 f0       	brcs	.+8      	; 0x1096 <__udivmodsi4_ep>
    108e:	a2 1b       	sub	r26, r18
    1090:	b3 0b       	sbc	r27, r19
    1092:	e4 0b       	sbc	r30, r20
    1094:	f5 0b       	sbc	r31, r21

00001096 <__udivmodsi4_ep>:
    1096:	66 1f       	adc	r22, r22
    1098:	77 1f       	adc	r23, r23
    109a:	88 1f       	adc	r24, r24
    109c:	99 1f       	adc	r25, r25
    109e:	1a 94       	dec	r1
    10a0:	69 f7       	brne	.-38     	; 0x107c <__udivmodsi4_loop>
    10a2:	60 95       	com	r22
    10a4:	70 95       	com	r23
    10a6:	80 95       	com	r24
    10a8:	90 95       	com	r25
    10aa:	9b 01       	movw	r18, r22
    10ac:	ac 01       	movw	r20, r24
    10ae:	bd 01       	movw	r22, r26
    10b0:	cf 01       	movw	r24, r30
    10b2:	08 95       	ret

000010b4 <_exit>:
    10b4:	f8 94       	cli

000010b6 <__stop_program>:
    10b6:	ff cf       	rjmp	.-2      	; 0x10b6 <__stop_program>
