
nrp.elf:     file format elf32-avr

Sections:
Idx Name          Size      VMA       LMA       File off  Algn
  0 .data         00000264  00800100  00001846  000018da  2**0
                  CONTENTS, ALLOC, LOAD, DATA
  1 .text         00001846  00000000  00000000  00000094  2**1
                  CONTENTS, ALLOC, LOAD, READONLY, CODE
  2 .bss          00000022  00800364  00800364  00001b3e  2**0
                  ALLOC
  3 .debug_aranges 00000160  00000000  00000000  00001b3e  2**0
                  CONTENTS, READONLY, DEBUGGING
  4 .debug_pubnames 00000392  00000000  00000000  00001c9e  2**0
                  CONTENTS, READONLY, DEBUGGING
  5 .debug_info   00001abd  00000000  00000000  00002030  2**0
                  CONTENTS, READONLY, DEBUGGING
  6 .debug_abbrev 00000a94  00000000  00000000  00003aed  2**0
                  CONTENTS, READONLY, DEBUGGING
  7 .debug_line   0000137f  00000000  00000000  00004581  2**0
                  CONTENTS, READONLY, DEBUGGING
  8 .debug_frame  00000390  00000000  00000000  00005900  2**2
                  CONTENTS, READONLY, DEBUGGING
  9 .debug_str    0000095d  00000000  00000000  00005c90  2**0
                  CONTENTS, READONLY, DEBUGGING

Disassembly of section .text:

00000000 <__vectors>:
       0:	0c 94 46 00 	jmp	0x8c	; 0x8c <__ctors_end>
       4:	0c 94 65 00 	jmp	0xca	; 0xca <__bad_interrupt>
       8:	0c 94 65 00 	jmp	0xca	; 0xca <__bad_interrupt>
       c:	0c 94 65 00 	jmp	0xca	; 0xca <__bad_interrupt>
      10:	0c 94 65 00 	jmp	0xca	; 0xca <__bad_interrupt>
      14:	0c 94 65 00 	jmp	0xca	; 0xca <__bad_interrupt>
      18:	0c 94 65 00 	jmp	0xca	; 0xca <__bad_interrupt>
      1c:	0c 94 65 00 	jmp	0xca	; 0xca <__bad_interrupt>
      20:	0c 94 7e 07 	jmp	0xefc	; 0xefc <__vector_8>
      24:	0c 94 65 00 	jmp	0xca	; 0xca <__bad_interrupt>
      28:	0c 94 65 00 	jmp	0xca	; 0xca <__bad_interrupt>
      2c:	0c 94 65 00 	jmp	0xca	; 0xca <__bad_interrupt>
      30:	0c 94 65 00 	jmp	0xca	; 0xca <__bad_interrupt>
      34:	0c 94 65 00 	jmp	0xca	; 0xca <__bad_interrupt>
      38:	0c 94 65 00 	jmp	0xca	; 0xca <__bad_interrupt>
      3c:	0c 94 65 00 	jmp	0xca	; 0xca <__bad_interrupt>
      40:	0c 94 65 00 	jmp	0xca	; 0xca <__bad_interrupt>
      44:	0c 94 65 00 	jmp	0xca	; 0xca <__bad_interrupt>
      48:	0c 94 65 00 	jmp	0xca	; 0xca <__bad_interrupt>
      4c:	0c 94 65 00 	jmp	0xca	; 0xca <__bad_interrupt>
      50:	0c 94 c5 06 	jmp	0xd8a	; 0xd8a <__vector_20>
      54:	0c 94 64 09 	jmp	0x12c8	; 0x12c8 <__vector_21>
      58:	0c 94 65 00 	jmp	0xca	; 0xca <__bad_interrupt>
      5c:	0c 94 65 00 	jmp	0xca	; 0xca <__bad_interrupt>
      60:	0c 94 65 00 	jmp	0xca	; 0xca <__bad_interrupt>
      64:	0c 94 65 00 	jmp	0xca	; 0xca <__bad_interrupt>
      68:	0c 94 65 00 	jmp	0xca	; 0xca <__bad_interrupt>
      6c:	0c 94 65 00 	jmp	0xca	; 0xca <__bad_interrupt>
      70:	0c 94 65 00 	jmp	0xca	; 0xca <__bad_interrupt>
      74:	0c 94 da 09 	jmp	0x13b4	; 0x13b4 <__vector_29>
      78:	0c 94 65 00 	jmp	0xca	; 0xca <__bad_interrupt>
      7c:	0c 94 65 00 	jmp	0xca	; 0xca <__bad_interrupt>
      80:	0c 94 65 00 	jmp	0xca	; 0xca <__bad_interrupt>
      84:	0c 94 65 00 	jmp	0xca	; 0xca <__bad_interrupt>
      88:	0c 94 65 00 	jmp	0xca	; 0xca <__bad_interrupt>

0000008c <__ctors_end>:
      8c:	11 24       	eor	r1, r1
      8e:	1f be       	out	0x3f, r1	; 63
      90:	cf ef       	ldi	r28, 0xFF	; 255
      92:	d0 e4       	ldi	r29, 0x40	; 64
      94:	de bf       	out	0x3e, r29	; 62
      96:	cd bf       	out	0x3d, r28	; 61

00000098 <__do_copy_data>:
      98:	13 e0       	ldi	r17, 0x03	; 3
      9a:	a0 e0       	ldi	r26, 0x00	; 0
      9c:	b1 e0       	ldi	r27, 0x01	; 1
      9e:	e6 e4       	ldi	r30, 0x46	; 70
      a0:	f8 e1       	ldi	r31, 0x18	; 24
      a2:	00 e0       	ldi	r16, 0x00	; 0
      a4:	0b bf       	out	0x3b, r16	; 59
      a6:	02 c0       	rjmp	.+4      	; 0xac <__do_copy_data+0x14>
      a8:	07 90       	elpm	r0, Z+
      aa:	0d 92       	st	X+, r0
      ac:	a4 36       	cpi	r26, 0x64	; 100
      ae:	b1 07       	cpc	r27, r17
      b0:	d9 f7       	brne	.-10     	; 0xa8 <__do_copy_data+0x10>

000000b2 <__do_clear_bss>:
      b2:	13 e0       	ldi	r17, 0x03	; 3
      b4:	a4 e6       	ldi	r26, 0x64	; 100
      b6:	b3 e0       	ldi	r27, 0x03	; 3
      b8:	01 c0       	rjmp	.+2      	; 0xbc <.do_clear_bss_start>

000000ba <.do_clear_bss_loop>:
      ba:	1d 92       	st	X+, r1

000000bc <.do_clear_bss_start>:
      bc:	a6 38       	cpi	r26, 0x86	; 134
      be:	b1 07       	cpc	r27, r17
      c0:	e1 f7       	brne	.-8      	; 0xba <.do_clear_bss_loop>
      c2:	0e 94 67 00 	call	0xce	; 0xce <main>
      c6:	0c 94 21 0c 	jmp	0x1842	; 0x1842 <_exit>

000000ca <__bad_interrupt>:
      ca:	0c 94 00 00 	jmp	0	; 0x0 <__vectors>

000000ce <main>:
char * const DI[] = { "80", "C0", "E0", "F0", "F8" };
char * const GI[] = { "21", "9A", "44", "80", "12" };
char * const CH[] = { "08", "10", "19", "23", "2E" };

int main (void)
{
      ce:	df 93       	push	r29
      d0:	cf 93       	push	r28
      d2:	0f 92       	push	r0
      d4:	cd b7       	in	r28, 0x3d	; 61
      d6:	de b7       	in	r29, 0x3e	; 62
	uint8_t no = 0;
      d8:	19 82       	std	Y+1, r1	; 0x01
//	wait(10);
	setMU2PutFunc(uart0Put);
      da:	88 ee       	ldi	r24, 0xE8	; 232
      dc:	97 e0       	ldi	r25, 0x07	; 7
      de:	0e 94 e0 03 	call	0x7c0	; 0x7c0 <setMU2PutFunc>
	setMU2GetFunc(uart0Get);
      e2:	86 e1       	ldi	r24, 0x16	; 22
      e4:	98 e0       	ldi	r25, 0x08	; 8
      e6:	0e 94 f2 03 	call	0x7e4	; 0x7e4 <setMU2GetFunc>
	initUART(
      ea:	80 e0       	ldi	r24, 0x00	; 0
      ec:	60 e0       	ldi	r22, 0x00	; 0
      ee:	48 e9       	ldi	r20, 0x98	; 152
      f0:	20 e4       	ldi	r18, 0x40	; 64
      f2:	30 e0       	ldi	r19, 0x00	; 0
      f4:	0e 94 98 07 	call	0xf30	; 0xf30 <initUART>
		UART0,
		StopBitIs1Bit|NonParity,
		ReceiverEnable|TransmiterEnable|ReceiveCompleteInteruptEnable,
		UARTBAUD(19200)
	);
	initLED();
      f8:	0e 94 05 06 	call	0xc0a	; 0xc0a <initLED>
	initSwitch();
      fc:	0e 94 51 06 	call	0xca2	; 0xca2 <initSwitch>
	
	initRCRx();
     100:	0e 94 a9 06 	call	0xd52	; 0xd52 <initRCRx>
	
	no = Switch() & 0x03;
     104:	0e 94 8a 06 	call	0xd14	; 0xd14 <Switch>
     108:	83 70       	andi	r24, 0x03	; 3
     10a:	89 83       	std	Y+1, r24	; 0x01
	
	mu2Command("EI",EI[no]);
     10c:	89 81       	ldd	r24, Y+1	; 0x01
     10e:	88 2f       	mov	r24, r24
     110:	90 e0       	ldi	r25, 0x00	; 0
     112:	88 0f       	add	r24, r24
     114:	99 1f       	adc	r25, r25
     116:	fc 01       	movw	r30, r24
     118:	e1 5f       	subi	r30, 0xF1	; 241
     11a:	fe 4f       	sbci	r31, 0xFE	; 254
     11c:	20 81       	ld	r18, Z
     11e:	31 81       	ldd	r19, Z+1	; 0x01
     120:	81 e6       	ldi	r24, 0x61	; 97
     122:	91 e0       	ldi	r25, 0x01	; 1
     124:	b9 01       	movw	r22, r18
     126:	0e 94 32 04 	call	0x864	; 0x864 <mu2Command>
	mu2Command("DI",DI[no]);
     12a:	89 81       	ldd	r24, Y+1	; 0x01
     12c:	88 2f       	mov	r24, r24
     12e:	90 e0       	ldi	r25, 0x00	; 0
     130:	88 0f       	add	r24, r24
     132:	99 1f       	adc	r25, r25
     134:	fc 01       	movw	r30, r24
     136:	e8 5d       	subi	r30, 0xD8	; 216
     138:	fe 4f       	sbci	r31, 0xFE	; 254
     13a:	20 81       	ld	r18, Z
     13c:	31 81       	ldd	r19, Z+1	; 0x01
     13e:	84 e6       	ldi	r24, 0x64	; 100
     140:	91 e0       	ldi	r25, 0x01	; 1
     142:	b9 01       	movw	r22, r18
     144:	0e 94 32 04 	call	0x864	; 0x864 <mu2Command>
	mu2Command("GI",GI[no]);
     148:	89 81       	ldd	r24, Y+1	; 0x01
     14a:	88 2f       	mov	r24, r24
     14c:	90 e0       	ldi	r25, 0x00	; 0
     14e:	88 0f       	add	r24, r24
     150:	99 1f       	adc	r25, r25
     152:	fc 01       	movw	r30, r24
     154:	e2 5c       	subi	r30, 0xC2	; 194
     156:	fe 4f       	sbci	r31, 0xFE	; 254
     158:	20 81       	ld	r18, Z
     15a:	31 81       	ldd	r19, Z+1	; 0x01
     15c:	87 e6       	ldi	r24, 0x67	; 103
     15e:	91 e0       	ldi	r25, 0x01	; 1
     160:	b9 01       	movw	r22, r18
     162:	0e 94 32 04 	call	0x864	; 0x864 <mu2Command>
	mu2Command("CH",CH[no]);
     166:	89 81       	ldd	r24, Y+1	; 0x01
     168:	88 2f       	mov	r24, r24
     16a:	90 e0       	ldi	r25, 0x00	; 0
     16c:	88 0f       	add	r24, r24
     16e:	99 1f       	adc	r25, r25
     170:	fc 01       	movw	r30, r24
     172:	e9 5a       	subi	r30, 0xA9	; 169
     174:	fe 4f       	sbci	r31, 0xFE	; 254
     176:	20 81       	ld	r18, Z
     178:	31 81       	ldd	r19, Z+1	; 0x01
     17a:	8a e6       	ldi	r24, 0x6A	; 106
     17c:	91 e0       	ldi	r25, 0x01	; 1
     17e:	b9 01       	movw	r22, r18
     180:	0e 94 32 04 	call	0x864	; 0x864 <mu2Command>

	sei();
     184:	78 94       	sei
	userMain();
     186:	0e 94 cb 00 	call	0x196	; 0x196 <userMain>
	
	return 0;
     18a:	80 e0       	ldi	r24, 0x00	; 0
     18c:	90 e0       	ldi	r25, 0x00	; 0
}
     18e:	0f 90       	pop	r0
     190:	cf 91       	pop	r28
     192:	df 91       	pop	r29
     194:	08 95       	ret

00000196 <userMain>:
	{  29,	 0,	-24, -45, -61, -73,	-82, -86, -86, -82,	-73, -61, -45, -24,	  0},
	{	0, -29,	-53, -73, -90,-100,-100,-100,-100,-100,-100, -90, -73, -53,	-29}
};

void userMain(void)
{
     196:	df 93       	push	r29
     198:	cf 93       	push	r28
     19a:	cd b7       	in	r28, 0x3d	; 61
     19c:	de b7       	in	r29, 0x3e	; 62
     19e:	64 97       	sbiw	r28, 0x14	; 20
     1a0:	0f b6       	in	r0, 0x3f	; 63
     1a2:	f8 94       	cli
     1a4:	de bf       	out	0x3e, r29	; 62
     1a6:	0f be       	out	0x3f, r0	; 63
     1a8:	cd bf       	out	0x3d, r28	; 61
	union controller_data *controller;

	Motor * const lTire = getMotor(Motor0);
     1aa:	80 e0       	ldi	r24, 0x00	; 0
     1ac:	0e 94 d7 0b 	call	0x17ae	; 0x17ae <getMotor>
     1b0:	99 8b       	std	Y+17, r25	; 0x11
     1b2:	88 8b       	std	Y+16, r24	; 0x10
	Motor * const rTire = getMotor(Motor1);
     1b4:	81 e0       	ldi	r24, 0x01	; 1
     1b6:	0e 94 d7 0b 	call	0x17ae	; 0x17ae <getMotor>
     1ba:	9f 87       	std	Y+15, r25	; 0x0f
     1bc:	8e 87       	std	Y+14, r24	; 0x0e
	Motor * const arm = getMotor(Motor2);
     1be:	82 e0       	ldi	r24, 0x02	; 2
     1c0:	0e 94 d7 0b 	call	0x17ae	; 0x17ae <getMotor>
     1c4:	9d 87       	std	Y+13, r25	; 0x0d
     1c6:	8c 87       	std	Y+12, r24	; 0x0c
	AirCylinder * const shoulder = getAirCylinder(AirCylinder0); 
     1c8:	80 e0       	ldi	r24, 0x00	; 0
     1ca:	0e 94 10 0c 	call	0x1820	; 0x1820 <getAirCylinder>
     1ce:	9b 87       	std	Y+11, r25	; 0x0b
     1d0:	8a 87       	std	Y+10, r24	; 0x0a

	uint8_t x,y;
	int8_t lDuty,rDuty;
	bool bPushed = false, aPushed  = false, yPushed = false;
     1d2:	1d 82       	std	Y+5, r1	; 0x05
     1d4:	1c 82       	std	Y+4, r1	; 0x04
     1d6:	1b 82       	std	Y+3, r1	; 0x03
	enum MotorAction armAct = FREE, armActTmp = armAct;
     1d8:	1a 82       	std	Y+2, r1	; 0x02
     1da:	8a 81       	ldd	r24, Y+2	; 0x02
     1dc:	89 83       	std	Y+1, r24	; 0x01
	
	while ( true ) {
		controller = ToggleRCRxBuffer();
     1de:	0e 94 ba 06 	call	0xd74	; 0xd74 <ToggleRCRxBuffer>
     1e2:	9b 8b       	std	Y+19, r25	; 0x13
     1e4:	8a 8b       	std	Y+18, r24	; 0x12
		
		if ( controller->detail.Button.A && !aPushed ) {
     1e6:	ea 89       	ldd	r30, Y+18	; 0x12
     1e8:	fb 89       	ldd	r31, Y+19	; 0x13
     1ea:	80 81       	ld	r24, Z
     1ec:	82 70       	andi	r24, 0x02	; 2
     1ee:	88 23       	and	r24, r24
     1f0:	71 f0       	breq	.+28     	; 0x20e <userMain+0x78>
     1f2:	9c 81       	ldd	r25, Y+4	; 0x04
     1f4:	81 e0       	ldi	r24, 0x01	; 1
     1f6:	98 27       	eor	r25, r24
     1f8:	81 e0       	ldi	r24, 0x01	; 1
     1fa:	89 27       	eor	r24, r25
     1fc:	88 23       	and	r24, r24
     1fe:	39 f4       	brne	.+14     	; 0x20e <userMain+0x78>
			armActTmp = armAct;
     200:	8a 81       	ldd	r24, Y+2	; 0x02
     202:	89 83       	std	Y+1, r24	; 0x01
			armAct = CW;
     204:	81 e0       	ldi	r24, 0x01	; 1
     206:	8a 83       	std	Y+2, r24	; 0x02
			aPushed = true;
     208:	81 e0       	ldi	r24, 0x01	; 1
     20a:	8c 83       	std	Y+4, r24	; 0x04
     20c:	2f c0       	rjmp	.+94     	; 0x26c <userMain+0xd6>
		} else if ( !controller->detail.Button.A && aPushed ) {
     20e:	ea 89       	ldd	r30, Y+18	; 0x12
     210:	fb 89       	ldd	r31, Y+19	; 0x13
     212:	80 81       	ld	r24, Z
     214:	82 70       	andi	r24, 0x02	; 2
     216:	88 23       	and	r24, r24
     218:	49 f4       	brne	.+18     	; 0x22c <userMain+0x96>
     21a:	8c 81       	ldd	r24, Y+4	; 0x04
     21c:	91 e0       	ldi	r25, 0x01	; 1
     21e:	89 27       	eor	r24, r25
     220:	88 23       	and	r24, r24
     222:	21 f4       	brne	.+8      	; 0x22c <userMain+0x96>
			armAct = armActTmp;
     224:	89 81       	ldd	r24, Y+1	; 0x01
     226:	8a 83       	std	Y+2, r24	; 0x02
			aPushed = false;
     228:	1c 82       	std	Y+4, r1	; 0x04
     22a:	20 c0       	rjmp	.+64     	; 0x26c <userMain+0xd6>
		} else if ( controller->detail.Button.B && !bPushed ) {
     22c:	ea 89       	ldd	r30, Y+18	; 0x12
     22e:	fb 89       	ldd	r31, Y+19	; 0x13
     230:	80 81       	ld	r24, Z
     232:	84 70       	andi	r24, 0x04	; 4
     234:	88 23       	and	r24, r24
     236:	71 f0       	breq	.+28     	; 0x254 <userMain+0xbe>
     238:	9d 81       	ldd	r25, Y+5	; 0x05
     23a:	81 e0       	ldi	r24, 0x01	; 1
     23c:	98 27       	eor	r25, r24
     23e:	81 e0       	ldi	r24, 0x01	; 1
     240:	89 27       	eor	r24, r25
     242:	88 23       	and	r24, r24
     244:	39 f4       	brne	.+14     	; 0x254 <userMain+0xbe>
			armActTmp = armAct;
     246:	8a 81       	ldd	r24, Y+2	; 0x02
     248:	89 83       	std	Y+1, r24	; 0x01
			armAct = CCW;
     24a:	82 e0       	ldi	r24, 0x02	; 2
     24c:	8a 83       	std	Y+2, r24	; 0x02
			bPushed = true;
     24e:	81 e0       	ldi	r24, 0x01	; 1
     250:	8d 83       	std	Y+5, r24	; 0x05
     252:	0c c0       	rjmp	.+24     	; 0x26c <userMain+0xd6>
		} else if ( !controller->detail.Button.B && bPushed ) {
     254:	ea 89       	ldd	r30, Y+18	; 0x12
     256:	fb 89       	ldd	r31, Y+19	; 0x13
     258:	80 81       	ld	r24, Z
     25a:	84 70       	andi	r24, 0x04	; 4
     25c:	88 23       	and	r24, r24
     25e:	31 f4       	brne	.+12     	; 0x26c <userMain+0xd6>
     260:	8d 81       	ldd	r24, Y+5	; 0x05
     262:	88 23       	and	r24, r24
     264:	19 f0       	breq	.+6      	; 0x26c <userMain+0xd6>
			armAct = armActTmp;
     266:	89 81       	ldd	r24, Y+1	; 0x01
     268:	8a 83       	std	Y+2, r24	; 0x02
			bPushed = false;
     26a:	1d 82       	std	Y+5, r1	; 0x05
		}

		if ( !aPushed && !bPushed ) {
     26c:	8c 81       	ldd	r24, Y+4	; 0x04
     26e:	91 e0       	ldi	r25, 0x01	; 1
     270:	89 27       	eor	r24, r25
     272:	88 23       	and	r24, r24
     274:	39 f1       	breq	.+78     	; 0x2c4 <userMain+0x12e>
     276:	8d 81       	ldd	r24, Y+5	; 0x05
     278:	91 e0       	ldi	r25, 0x01	; 1
     27a:	89 27       	eor	r24, r25
     27c:	88 23       	and	r24, r24
     27e:	11 f1       	breq	.+68     	; 0x2c4 <userMain+0x12e>
			if ( controller->detail.Button.Y && !yPushed ) {
     280:	ea 89       	ldd	r30, Y+18	; 0x12
     282:	fb 89       	ldd	r31, Y+19	; 0x13
     284:	80 81       	ld	r24, Z
     286:	88 70       	andi	r24, 0x08	; 8
     288:	88 23       	and	r24, r24
     28a:	91 f0       	breq	.+36     	; 0x2b0 <userMain+0x11a>
     28c:	9b 81       	ldd	r25, Y+3	; 0x03
     28e:	81 e0       	ldi	r24, 0x01	; 1
     290:	98 27       	eor	r25, r24
     292:	81 e0       	ldi	r24, 0x01	; 1
     294:	89 27       	eor	r24, r25
     296:	88 23       	and	r24, r24
     298:	59 f4       	brne	.+22     	; 0x2b0 <userMain+0x11a>
				armAct = ( armAct == FREE )? CW:FREE;
     29a:	1c 8a       	std	Y+20, r1	; 0x14
     29c:	8a 81       	ldd	r24, Y+2	; 0x02
     29e:	88 23       	and	r24, r24
     2a0:	11 f4       	brne	.+4      	; 0x2a6 <userMain+0x110>
     2a2:	81 e0       	ldi	r24, 0x01	; 1
     2a4:	8c 8b       	std	Y+20, r24	; 0x14
     2a6:	8c 89       	ldd	r24, Y+20	; 0x14
     2a8:	8a 83       	std	Y+2, r24	; 0x02
				yPushed = true;
     2aa:	81 e0       	ldi	r24, 0x01	; 1
     2ac:	8b 83       	std	Y+3, r24	; 0x03
     2ae:	0a c0       	rjmp	.+20     	; 0x2c4 <userMain+0x12e>
			} else if ( !controller->detail.Button.Y && yPushed ) {
     2b0:	ea 89       	ldd	r30, Y+18	; 0x12
     2b2:	fb 89       	ldd	r31, Y+19	; 0x13
     2b4:	80 81       	ld	r24, Z
     2b6:	88 70       	andi	r24, 0x08	; 8
     2b8:	88 23       	and	r24, r24
     2ba:	21 f4       	brne	.+8      	; 0x2c4 <userMain+0x12e>
     2bc:	8b 81       	ldd	r24, Y+3	; 0x03
     2be:	88 23       	and	r24, r24
     2c0:	09 f0       	breq	.+2      	; 0x2c4 <userMain+0x12e>
				yPushed = false;
     2c2:	1b 82       	std	Y+3, r1	; 0x03
			}
		}

		if ( controller->detail.Button.L ) {
     2c4:	ea 89       	ldd	r30, Y+18	; 0x12
     2c6:	fb 89       	ldd	r31, Y+19	; 0x13
     2c8:	81 81       	ldd	r24, Z+1	; 0x01
     2ca:	80 72       	andi	r24, 0x20	; 32
     2cc:	88 23       	and	r24, r24
     2ce:	39 f0       	breq	.+14     	; 0x2de <userMain+0x148>
			lDuty = -100;
     2d0:	8c e9       	ldi	r24, 0x9C	; 156
     2d2:	8f 83       	std	Y+7, r24	; 0x07
			rDuty = 100;
     2d4:	84 e6       	ldi	r24, 0x64	; 100
     2d6:	8e 83       	std	Y+6, r24	; 0x06
			armAct = CW;
     2d8:	81 e0       	ldi	r24, 0x01	; 1
     2da:	8a 83       	std	Y+2, r24	; 0x02
     2dc:	4a c0       	rjmp	.+148    	; 0x372 <userMain+0x1dc>
		} else if ( controller->detail.Button.R ) {
     2de:	ea 89       	ldd	r30, Y+18	; 0x12
     2e0:	fb 89       	ldd	r31, Y+19	; 0x13
     2e2:	81 81       	ldd	r24, Z+1	; 0x01
     2e4:	80 74       	andi	r24, 0x40	; 64
     2e6:	88 23       	and	r24, r24
     2e8:	39 f0       	breq	.+14     	; 0x2f8 <userMain+0x162>
			lDuty = 100;
     2ea:	84 e6       	ldi	r24, 0x64	; 100
     2ec:	8f 83       	std	Y+7, r24	; 0x07
			rDuty = -100;
     2ee:	8c e9       	ldi	r24, 0x9C	; 156
     2f0:	8e 83       	std	Y+6, r24	; 0x06
			armAct = CCW;
     2f2:	82 e0       	ldi	r24, 0x02	; 2
     2f4:	8a 83       	std	Y+2, r24	; 0x02
     2f6:	3d c0       	rjmp	.+122    	; 0x372 <userMain+0x1dc>
		} else {
			x = controller->detail.AnalogL.X;
     2f8:	ea 89       	ldd	r30, Y+18	; 0x12
     2fa:	fb 89       	ldd	r31, Y+19	; 0x13
     2fc:	82 81       	ldd	r24, Z+2	; 0x02
     2fe:	82 95       	swap	r24
     300:	8f 70       	andi	r24, 0x0F	; 15
     302:	89 87       	std	Y+9, r24	; 0x09
			y = controller->detail.AnalogL.Y;
     304:	ea 89       	ldd	r30, Y+18	; 0x12
     306:	fb 89       	ldd	r31, Y+19	; 0x13
     308:	82 81       	ldd	r24, Z+2	; 0x02
     30a:	8f 70       	andi	r24, 0x0F	; 15
     30c:	88 87       	std	Y+8, r24	; 0x08
			lDuty = lTireTable[x][y];
     30e:	89 85       	ldd	r24, Y+9	; 0x09
     310:	28 2f       	mov	r18, r24
     312:	30 e0       	ldi	r19, 0x00	; 0
     314:	88 85       	ldd	r24, Y+8	; 0x08
     316:	48 2f       	mov	r20, r24
     318:	50 e0       	ldi	r21, 0x00	; 0
     31a:	c9 01       	movw	r24, r18
     31c:	88 0f       	add	r24, r24
     31e:	99 1f       	adc	r25, r25
     320:	82 0f       	add	r24, r18
     322:	93 1f       	adc	r25, r19
     324:	9c 01       	movw	r18, r24
     326:	22 0f       	add	r18, r18
     328:	33 1f       	adc	r19, r19
     32a:	22 0f       	add	r18, r18
     32c:	33 1f       	adc	r19, r19
     32e:	82 0f       	add	r24, r18
     330:	93 1f       	adc	r25, r19
     332:	84 0f       	add	r24, r20
     334:	95 1f       	adc	r25, r21
     336:	fc 01       	movw	r30, r24
     338:	e3 59       	subi	r30, 0x93	; 147
     33a:	fe 4f       	sbci	r31, 0xFE	; 254
     33c:	80 81       	ld	r24, Z
     33e:	8f 83       	std	Y+7, r24	; 0x07
			rDuty = rTireTable[x][y];
     340:	89 85       	ldd	r24, Y+9	; 0x09
     342:	28 2f       	mov	r18, r24
     344:	30 e0       	ldi	r19, 0x00	; 0
     346:	88 85       	ldd	r24, Y+8	; 0x08
     348:	48 2f       	mov	r20, r24
     34a:	50 e0       	ldi	r21, 0x00	; 0
     34c:	c9 01       	movw	r24, r18
     34e:	88 0f       	add	r24, r24
     350:	99 1f       	adc	r25, r25
     352:	82 0f       	add	r24, r18
     354:	93 1f       	adc	r25, r19
     356:	9c 01       	movw	r18, r24
     358:	22 0f       	add	r18, r18
     35a:	33 1f       	adc	r19, r19
     35c:	22 0f       	add	r18, r18
     35e:	33 1f       	adc	r19, r19
     360:	82 0f       	add	r24, r18
     362:	93 1f       	adc	r25, r19
     364:	84 0f       	add	r24, r20
     366:	95 1f       	adc	r25, r21
     368:	fc 01       	movw	r30, r24
     36a:	e2 5b       	subi	r30, 0xB2	; 178
     36c:	fd 4f       	sbci	r31, 0xFD	; 253
     36e:	80 81       	ld	r24, Z
     370:	8e 83       	std	Y+6, r24	; 0x06
		}

		lTire->drive(CW,lDuty);
     372:	e8 89       	ldd	r30, Y+16	; 0x10
     374:	f9 89       	ldd	r31, Y+17	; 0x11
     376:	01 90       	ld	r0, Z+
     378:	f0 81       	ld	r31, Z
     37a:	e0 2d       	mov	r30, r0
     37c:	81 e0       	ldi	r24, 0x01	; 1
     37e:	6f 81       	ldd	r22, Y+7	; 0x07
     380:	09 95       	icall
		rTire->drive(CW,rDuty);
     382:	ee 85       	ldd	r30, Y+14	; 0x0e
     384:	ff 85       	ldd	r31, Y+15	; 0x0f
     386:	01 90       	ld	r0, Z+
     388:	f0 81       	ld	r31, Z
     38a:	e0 2d       	mov	r30, r0
     38c:	81 e0       	ldi	r24, 0x01	; 1
     38e:	6e 81       	ldd	r22, Y+6	; 0x06
     390:	09 95       	icall
		arm->drive(armAct,100);
     392:	ec 85       	ldd	r30, Y+12	; 0x0c
     394:	fd 85       	ldd	r31, Y+13	; 0x0d
     396:	01 90       	ld	r0, Z+
     398:	f0 81       	ld	r31, Z
     39a:	e0 2d       	mov	r30, r0
     39c:	8a 81       	ldd	r24, Y+2	; 0x02
     39e:	64 e6       	ldi	r22, 0x64	; 100
     3a0:	09 95       	icall

		shoulder->drive(controller->detail.Button.X);
     3a2:	ea 85       	ldd	r30, Y+10	; 0x0a
     3a4:	fb 85       	ldd	r31, Y+11	; 0x0b
     3a6:	20 81       	ld	r18, Z
     3a8:	31 81       	ldd	r19, Z+1	; 0x01
     3aa:	ea 89       	ldd	r30, Y+18	; 0x12
     3ac:	fb 89       	ldd	r31, Y+19	; 0x13
     3ae:	80 81       	ld	r24, Z
     3b0:	81 70       	andi	r24, 0x01	; 1
     3b2:	f9 01       	movw	r30, r18
     3b4:	09 95       	icall
		

		wait(15);
     3b6:	8f e0       	ldi	r24, 0x0F	; 15
     3b8:	90 e0       	ldi	r25, 0x00	; 0
     3ba:	0e 94 66 0a 	call	0x14cc	; 0x14cc <wait_ms>
     3be:	0f cf       	rjmp	.-482    	; 0x1de <userMain+0x48>

000003c0 <initI2CMaster>:
 * @code
 *     initI2CMaster(100); //100kbpsでマスター動作に初期化
 * @endcode
 */
void initI2CMaster(uint8_t baud) 
{
     3c0:	df 93       	push	r29
     3c2:	cf 93       	push	r28
     3c4:	0f 92       	push	r0
     3c6:	cd b7       	in	r28, 0x3d	; 61
     3c8:	de b7       	in	r29, 0x3e	; 62
     3ca:	89 83       	std	Y+1, r24	; 0x01
	// ボーレートを設定し，TWI動作を許可する
		TWBR = baud;
     3cc:	e8 eb       	ldi	r30, 0xB8	; 184
     3ce:	f0 e0       	ldi	r31, 0x00	; 0
     3d0:	89 81       	ldd	r24, Y+1	; 0x01
     3d2:	80 83       	st	Z, r24
		TWSR = 0;
     3d4:	e9 eb       	ldi	r30, 0xB9	; 185
     3d6:	f0 e0       	ldi	r31, 0x00	; 0
     3d8:	10 82       	st	Z, r1
		TWCR = EnableI2C;
     3da:	ec eb       	ldi	r30, 0xBC	; 188
     3dc:	f0 e0       	ldi	r31, 0x00	; 0
     3de:	84 e0       	ldi	r24, 0x04	; 4
     3e0:	80 83       	st	Z, r24
}
     3e2:	0f 90       	pop	r0
     3e4:	cf 91       	pop	r28
     3e6:	df 91       	pop	r29
     3e8:	08 95       	ret

000003ea <i2cWrite>:
 *     transBuf = 0xff;
 *     i2cWrite(&slave);   // アドレスが0x01のスレーブに0xffが書かれる
 * @endcode
 */
bool i2cWrite(Slave* slave)
{
     3ea:	df 93       	push	r29
     3ec:	cf 93       	push	r28
     3ee:	00 d0       	rcall	.+0      	; 0x3f0 <i2cWrite+0x6>
     3f0:	00 d0       	rcall	.+0      	; 0x3f2 <i2cWrite+0x8>
     3f2:	0f 92       	push	r0
     3f4:	cd b7       	in	r28, 0x3d	; 61
     3f6:	de b7       	in	r29, 0x3e	; 62
     3f8:	9c 83       	std	Y+4, r25	; 0x04
     3fa:	8b 83       	std	Y+3, r24	; 0x03
		uint8_t i, size;
	// 開始条件の生成
		TWCR = SendStartConditionBit;
     3fc:	ec eb       	ldi	r30, 0xBC	; 188
     3fe:	f0 e0       	ldi	r31, 0x00	; 0
     400:	84 ea       	ldi	r24, 0xA4	; 164
     402:	80 83       	st	Z, r24
		while ( I2C_DOING );
     404:	ec eb       	ldi	r30, 0xBC	; 188
     406:	f0 e0       	ldi	r31, 0x00	; 0
     408:	80 81       	ld	r24, Z
     40a:	88 23       	and	r24, r24
     40c:	dc f7       	brge	.-10     	; 0x404 <i2cWrite+0x1a>
		if ( I2C_STATUS != SentStartConditionBit ) goto ERROR;
     40e:	e9 eb       	ldi	r30, 0xB9	; 185
     410:	f0 e0       	ldi	r31, 0x00	; 0
     412:	80 81       	ld	r24, Z
     414:	88 2f       	mov	r24, r24
     416:	90 e0       	ldi	r25, 0x00	; 0
     418:	88 7f       	andi	r24, 0xF8	; 248
     41a:	90 70       	andi	r25, 0x00	; 0
     41c:	88 30       	cpi	r24, 0x08	; 8
     41e:	91 05       	cpc	r25, r1
     420:	09 f0       	breq	.+2      	; 0x424 <i2cWrite+0x3a>
     422:	4e c0       	rjmp	.+156    	; 0x4c0 <i2cWrite+0xd6>
		
	// アドレス転送，ACK確認		
		TWDR = ( slave->address << 1 ) | WRITE;
     424:	ab eb       	ldi	r26, 0xBB	; 187
     426:	b0 e0       	ldi	r27, 0x00	; 0
     428:	eb 81       	ldd	r30, Y+3	; 0x03
     42a:	fc 81       	ldd	r31, Y+4	; 0x04
     42c:	80 81       	ld	r24, Z
     42e:	88 0f       	add	r24, r24
     430:	8c 93       	st	X, r24
		TWCR = ContinueI2C;
     432:	ec eb       	ldi	r30, 0xBC	; 188
     434:	f0 e0       	ldi	r31, 0x00	; 0
     436:	84 e8       	ldi	r24, 0x84	; 132
     438:	80 83       	st	Z, r24
		while ( I2C_DOING );
     43a:	ec eb       	ldi	r30, 0xBC	; 188
     43c:	f0 e0       	ldi	r31, 0x00	; 0
     43e:	80 81       	ld	r24, Z
     440:	88 23       	and	r24, r24
     442:	dc f7       	brge	.-10     	; 0x43a <i2cWrite+0x50>
		if ( I2C_STATUS != SentSlaveAddressWithWriteBitAndACK ) goto ERROR;
     444:	e9 eb       	ldi	r30, 0xB9	; 185
     446:	f0 e0       	ldi	r31, 0x00	; 0
     448:	80 81       	ld	r24, Z
     44a:	88 2f       	mov	r24, r24
     44c:	90 e0       	ldi	r25, 0x00	; 0
     44e:	88 7f       	andi	r24, 0xF8	; 248
     450:	90 70       	andi	r25, 0x00	; 0
     452:	88 31       	cpi	r24, 0x18	; 24
     454:	91 05       	cpc	r25, r1
     456:	a1 f5       	brne	.+104    	; 0x4c0 <i2cWrite+0xd6>
		
	// データバイト転送，ACK確認の一連をデータサイズ分行う
		for ( i = 0, size = slave->write.size; i < size; i++ ) {
     458:	1a 82       	std	Y+2, r1	; 0x02
     45a:	eb 81       	ldd	r30, Y+3	; 0x03
     45c:	fc 81       	ldd	r31, Y+4	; 0x04
     45e:	83 81       	ldd	r24, Z+3	; 0x03
     460:	89 83       	std	Y+1, r24	; 0x01
     462:	24 c0       	rjmp	.+72     	; 0x4ac <i2cWrite+0xc2>
			TWDR = slave->write.buffer[i];
     464:	ab eb       	ldi	r26, 0xBB	; 187
     466:	b0 e0       	ldi	r27, 0x00	; 0
     468:	eb 81       	ldd	r30, Y+3	; 0x03
     46a:	fc 81       	ldd	r31, Y+4	; 0x04
     46c:	21 81       	ldd	r18, Z+1	; 0x01
     46e:	32 81       	ldd	r19, Z+2	; 0x02
     470:	8a 81       	ldd	r24, Y+2	; 0x02
     472:	88 2f       	mov	r24, r24
     474:	90 e0       	ldi	r25, 0x00	; 0
     476:	f9 01       	movw	r30, r18
     478:	e8 0f       	add	r30, r24
     47a:	f9 1f       	adc	r31, r25
     47c:	80 81       	ld	r24, Z
     47e:	8c 93       	st	X, r24
			TWCR = ContinueI2C;
     480:	ec eb       	ldi	r30, 0xBC	; 188
     482:	f0 e0       	ldi	r31, 0x00	; 0
     484:	84 e8       	ldi	r24, 0x84	; 132
     486:	80 83       	st	Z, r24
			while ( I2C_DOING );
     488:	ec eb       	ldi	r30, 0xBC	; 188
     48a:	f0 e0       	ldi	r31, 0x00	; 0
     48c:	80 81       	ld	r24, Z
     48e:	88 23       	and	r24, r24
     490:	dc f7       	brge	.-10     	; 0x488 <i2cWrite+0x9e>
			if ( I2C_STATUS != SentDataByteAndACKAtMaster ) goto ERROR;
     492:	e9 eb       	ldi	r30, 0xB9	; 185
     494:	f0 e0       	ldi	r31, 0x00	; 0
     496:	80 81       	ld	r24, Z
     498:	88 2f       	mov	r24, r24
     49a:	90 e0       	ldi	r25, 0x00	; 0
     49c:	88 7f       	andi	r24, 0xF8	; 248
     49e:	90 70       	andi	r25, 0x00	; 0
     4a0:	88 32       	cpi	r24, 0x28	; 40
     4a2:	91 05       	cpc	r25, r1
     4a4:	69 f4       	brne	.+26     	; 0x4c0 <i2cWrite+0xd6>
		TWCR = ContinueI2C;
		while ( I2C_DOING );
		if ( I2C_STATUS != SentSlaveAddressWithWriteBitAndACK ) goto ERROR;
		
	// データバイト転送，ACK確認の一連をデータサイズ分行う
		for ( i = 0, size = slave->write.size; i < size; i++ ) {
     4a6:	8a 81       	ldd	r24, Y+2	; 0x02
     4a8:	8f 5f       	subi	r24, 0xFF	; 255
     4aa:	8a 83       	std	Y+2, r24	; 0x02
     4ac:	9a 81       	ldd	r25, Y+2	; 0x02
     4ae:	89 81       	ldd	r24, Y+1	; 0x01
     4b0:	98 17       	cp	r25, r24
     4b2:	c0 f2       	brcs	.-80     	; 0x464 <i2cWrite+0x7a>
			while ( I2C_DOING );
			if ( I2C_STATUS != SentDataByteAndACKAtMaster ) goto ERROR;
		}
		
	// 終了条件の生成
		TWCR = SendStopConditionBit;
     4b4:	ec eb       	ldi	r30, 0xBC	; 188
     4b6:	f0 e0       	ldi	r31, 0x00	; 0
     4b8:	84 e9       	ldi	r24, 0x94	; 148
     4ba:	80 83       	st	Z, r24
		
	// 正常終了
		return false;
     4bc:	1d 82       	std	Y+5, r1	; 0x05
     4be:	06 c0       	rjmp	.+12     	; 0x4cc <i2cWrite+0xe2>
		
	// エラーケース
ERROR:
		TWCR = SendStopConditionBit;
     4c0:	ec eb       	ldi	r30, 0xBC	; 188
     4c2:	f0 e0       	ldi	r31, 0x00	; 0
     4c4:	84 e9       	ldi	r24, 0x94	; 148
     4c6:	80 83       	st	Z, r24
		return true;
     4c8:	81 e0       	ldi	r24, 0x01	; 1
     4ca:	8d 83       	std	Y+5, r24	; 0x05
     4cc:	8d 81       	ldd	r24, Y+5	; 0x05
}
     4ce:	0f 90       	pop	r0
     4d0:	0f 90       	pop	r0
     4d2:	0f 90       	pop	r0
     4d4:	0f 90       	pop	r0
     4d6:	0f 90       	pop	r0
     4d8:	cf 91       	pop	r28
     4da:	df 91       	pop	r29
     4dc:	08 95       	ret

000004de <i2cRead>:
 *     };
 *     i2cRead(&slave);   // アドレスが0x01のスレーブから値を1byte読む
 * @endcode
 */
bool i2cRead(Slave* slave)
{
     4de:	df 93       	push	r29
     4e0:	cf 93       	push	r28
     4e2:	00 d0       	rcall	.+0      	; 0x4e4 <i2cRead+0x6>
     4e4:	00 d0       	rcall	.+0      	; 0x4e6 <i2cRead+0x8>
     4e6:	0f 92       	push	r0
     4e8:	cd b7       	in	r28, 0x3d	; 61
     4ea:	de b7       	in	r29, 0x3e	; 62
     4ec:	9c 83       	std	Y+4, r25	; 0x04
     4ee:	8b 83       	std	Y+3, r24	; 0x03
		uint8_t i, size;
	// 開始条件の生成
		TWCR = SendStartConditionBit;
     4f0:	ec eb       	ldi	r30, 0xBC	; 188
     4f2:	f0 e0       	ldi	r31, 0x00	; 0
     4f4:	84 ea       	ldi	r24, 0xA4	; 164
     4f6:	80 83       	st	Z, r24
		while ( I2C_DOING );
     4f8:	ec eb       	ldi	r30, 0xBC	; 188
     4fa:	f0 e0       	ldi	r31, 0x00	; 0
     4fc:	80 81       	ld	r24, Z
     4fe:	88 23       	and	r24, r24
     500:	dc f7       	brge	.-10     	; 0x4f8 <i2cRead+0x1a>
		if ( I2C_STATUS != SentStartConditionBit ) goto ERROR;
     502:	e9 eb       	ldi	r30, 0xB9	; 185
     504:	f0 e0       	ldi	r31, 0x00	; 0
     506:	80 81       	ld	r24, Z
     508:	88 2f       	mov	r24, r24
     50a:	90 e0       	ldi	r25, 0x00	; 0
     50c:	88 7f       	andi	r24, 0xF8	; 248
     50e:	90 70       	andi	r25, 0x00	; 0
     510:	88 30       	cpi	r24, 0x08	; 8
     512:	91 05       	cpc	r25, r1
     514:	09 f0       	breq	.+2      	; 0x518 <i2cRead+0x3a>
     516:	75 c0       	rjmp	.+234    	; 0x602 <i2cRead+0x124>
		
	// アドレス転送，ACK確認
		TWDR = ( slave->address << 1 ) | READ;
     518:	ab eb       	ldi	r26, 0xBB	; 187
     51a:	b0 e0       	ldi	r27, 0x00	; 0
     51c:	eb 81       	ldd	r30, Y+3	; 0x03
     51e:	fc 81       	ldd	r31, Y+4	; 0x04
     520:	80 81       	ld	r24, Z
     522:	88 2f       	mov	r24, r24
     524:	90 e0       	ldi	r25, 0x00	; 0
     526:	88 0f       	add	r24, r24
     528:	99 1f       	adc	r25, r25
     52a:	81 60       	ori	r24, 0x01	; 1
     52c:	8c 93       	st	X, r24
		TWCR = ContinueI2C;
     52e:	ec eb       	ldi	r30, 0xBC	; 188
     530:	f0 e0       	ldi	r31, 0x00	; 0
     532:	84 e8       	ldi	r24, 0x84	; 132
     534:	80 83       	st	Z, r24
		while ( I2C_DOING );
     536:	ec eb       	ldi	r30, 0xBC	; 188
     538:	f0 e0       	ldi	r31, 0x00	; 0
     53a:	80 81       	ld	r24, Z
     53c:	88 23       	and	r24, r24
     53e:	dc f7       	brge	.-10     	; 0x536 <i2cRead+0x58>
		if ( I2C_STATUS != SentSlaveAddressWithReadBitAndACK ) goto ERROR;
     540:	e9 eb       	ldi	r30, 0xB9	; 185
     542:	f0 e0       	ldi	r31, 0x00	; 0
     544:	80 81       	ld	r24, Z
     546:	88 2f       	mov	r24, r24
     548:	90 e0       	ldi	r25, 0x00	; 0
     54a:	88 7f       	andi	r24, 0xF8	; 248
     54c:	90 70       	andi	r25, 0x00	; 0
     54e:	80 34       	cpi	r24, 0x40	; 64
     550:	91 05       	cpc	r25, r1
     552:	09 f0       	breq	.+2      	; 0x556 <i2cRead+0x78>
     554:	56 c0       	rjmp	.+172    	; 0x602 <i2cRead+0x124>
		
	// データ受信，ACK発行
		for ( i = 0, size = slave->read.size - 1; i < size; i++ ) {
     556:	1a 82       	std	Y+2, r1	; 0x02
     558:	eb 81       	ldd	r30, Y+3	; 0x03
     55a:	fc 81       	ldd	r31, Y+4	; 0x04
     55c:	86 81       	ldd	r24, Z+6	; 0x06
     55e:	81 50       	subi	r24, 0x01	; 1
     560:	89 83       	std	Y+1, r24	; 0x01
     562:	24 c0       	rjmp	.+72     	; 0x5ac <i2cRead+0xce>
			TWCR = ContinueAndResponseI2C;
     564:	ec eb       	ldi	r30, 0xBC	; 188
     566:	f0 e0       	ldi	r31, 0x00	; 0
     568:	84 ec       	ldi	r24, 0xC4	; 196
     56a:	80 83       	st	Z, r24
			while( I2C_DOING );
     56c:	ec eb       	ldi	r30, 0xBC	; 188
     56e:	f0 e0       	ldi	r31, 0x00	; 0
     570:	80 81       	ld	r24, Z
     572:	88 23       	and	r24, r24
     574:	dc f7       	brge	.-10     	; 0x56c <i2cRead+0x8e>
			if ( I2C_STATUS != ReceivedDataByteAndACKAtMaster ) goto ERROR;
     576:	e9 eb       	ldi	r30, 0xB9	; 185
     578:	f0 e0       	ldi	r31, 0x00	; 0
     57a:	80 81       	ld	r24, Z
     57c:	88 2f       	mov	r24, r24
     57e:	90 e0       	ldi	r25, 0x00	; 0
     580:	88 7f       	andi	r24, 0xF8	; 248
     582:	90 70       	andi	r25, 0x00	; 0
     584:	80 35       	cpi	r24, 0x50	; 80
     586:	91 05       	cpc	r25, r1
     588:	e1 f5       	brne	.+120    	; 0x602 <i2cRead+0x124>
			slave->read.buffer[i] = TWDR;
     58a:	eb 81       	ldd	r30, Y+3	; 0x03
     58c:	fc 81       	ldd	r31, Y+4	; 0x04
     58e:	24 81       	ldd	r18, Z+4	; 0x04
     590:	35 81       	ldd	r19, Z+5	; 0x05
     592:	8a 81       	ldd	r24, Y+2	; 0x02
     594:	88 2f       	mov	r24, r24
     596:	90 e0       	ldi	r25, 0x00	; 0
     598:	d9 01       	movw	r26, r18
     59a:	a8 0f       	add	r26, r24
     59c:	b9 1f       	adc	r27, r25
     59e:	eb eb       	ldi	r30, 0xBB	; 187
     5a0:	f0 e0       	ldi	r31, 0x00	; 0
     5a2:	80 81       	ld	r24, Z
     5a4:	8c 93       	st	X, r24
		TWCR = ContinueI2C;
		while ( I2C_DOING );
		if ( I2C_STATUS != SentSlaveAddressWithReadBitAndACK ) goto ERROR;
		
	// データ受信，ACK発行
		for ( i = 0, size = slave->read.size - 1; i < size; i++ ) {
     5a6:	8a 81       	ldd	r24, Y+2	; 0x02
     5a8:	8f 5f       	subi	r24, 0xFF	; 255
     5aa:	8a 83       	std	Y+2, r24	; 0x02
     5ac:	9a 81       	ldd	r25, Y+2	; 0x02
     5ae:	89 81       	ldd	r24, Y+1	; 0x01
     5b0:	98 17       	cp	r25, r24
     5b2:	c0 f2       	brcs	.-80     	; 0x564 <i2cRead+0x86>
			if ( I2C_STATUS != ReceivedDataByteAndACKAtMaster ) goto ERROR;
			slave->read.buffer[i] = TWDR;
		}
			
	// 最終データ受信，NACK発行
		TWCR = ContinueI2C;
     5b4:	ec eb       	ldi	r30, 0xBC	; 188
     5b6:	f0 e0       	ldi	r31, 0x00	; 0
     5b8:	84 e8       	ldi	r24, 0x84	; 132
     5ba:	80 83       	st	Z, r24
		while ( I2C_DOING );
     5bc:	ec eb       	ldi	r30, 0xBC	; 188
     5be:	f0 e0       	ldi	r31, 0x00	; 0
     5c0:	80 81       	ld	r24, Z
     5c2:	88 23       	and	r24, r24
     5c4:	dc f7       	brge	.-10     	; 0x5bc <i2cRead+0xde>
		if ( I2C_STATUS != ReceivedDataByteAndNACK ) goto ERROR;
     5c6:	e9 eb       	ldi	r30, 0xB9	; 185
     5c8:	f0 e0       	ldi	r31, 0x00	; 0
     5ca:	80 81       	ld	r24, Z
     5cc:	88 2f       	mov	r24, r24
     5ce:	90 e0       	ldi	r25, 0x00	; 0
     5d0:	88 7f       	andi	r24, 0xF8	; 248
     5d2:	90 70       	andi	r25, 0x00	; 0
     5d4:	80 35       	cpi	r24, 0x50	; 80
     5d6:	91 05       	cpc	r25, r1
     5d8:	a1 f4       	brne	.+40     	; 0x602 <i2cRead+0x124>
		slave->read.buffer[size] = TWDR;
     5da:	eb 81       	ldd	r30, Y+3	; 0x03
     5dc:	fc 81       	ldd	r31, Y+4	; 0x04
     5de:	24 81       	ldd	r18, Z+4	; 0x04
     5e0:	35 81       	ldd	r19, Z+5	; 0x05
     5e2:	89 81       	ldd	r24, Y+1	; 0x01
     5e4:	88 2f       	mov	r24, r24
     5e6:	90 e0       	ldi	r25, 0x00	; 0
     5e8:	d9 01       	movw	r26, r18
     5ea:	a8 0f       	add	r26, r24
     5ec:	b9 1f       	adc	r27, r25
     5ee:	eb eb       	ldi	r30, 0xBB	; 187
     5f0:	f0 e0       	ldi	r31, 0x00	; 0
     5f2:	80 81       	ld	r24, Z
     5f4:	8c 93       	st	X, r24
		
	// 終了条件の生成
		TWCR = SendStopConditionBit;
     5f6:	ec eb       	ldi	r30, 0xBC	; 188
     5f8:	f0 e0       	ldi	r31, 0x00	; 0
     5fa:	84 e9       	ldi	r24, 0x94	; 148
     5fc:	80 83       	st	Z, r24
		
	// 正常終了
		return false;
     5fe:	1d 82       	std	Y+5, r1	; 0x05
     600:	06 c0       	rjmp	.+12     	; 0x60e <i2cRead+0x130>
		
	// エラーケース
ERROR:
		TWCR = SendStopConditionBit;
     602:	ec eb       	ldi	r30, 0xBC	; 188
     604:	f0 e0       	ldi	r31, 0x00	; 0
     606:	84 e9       	ldi	r24, 0x94	; 148
     608:	80 83       	st	Z, r24
		return true;
     60a:	81 e0       	ldi	r24, 0x01	; 1
     60c:	8d 83       	std	Y+5, r24	; 0x05
     60e:	8d 81       	ldd	r24, Y+5	; 0x05
}
     610:	0f 90       	pop	r0
     612:	0f 90       	pop	r0
     614:	0f 90       	pop	r0
     616:	0f 90       	pop	r0
     618:	0f 90       	pop	r0
     61a:	cf 91       	pop	r28
     61c:	df 91       	pop	r29
     61e:	08 95       	ret

00000620 <i2cReadWithCommand>:
 *     };
 *     i2cReadWithCommand(&slave,cmd);   // アドレスが0x01のスレーブにcommandを送り，つづけて値を1byte読む
 * @endcode
 */
bool i2cReadWithCommand(Slave* slave)
{
     620:	df 93       	push	r29
     622:	cf 93       	push	r28
     624:	00 d0       	rcall	.+0      	; 0x626 <i2cReadWithCommand+0x6>
     626:	00 d0       	rcall	.+0      	; 0x628 <i2cReadWithCommand+0x8>
     628:	0f 92       	push	r0
     62a:	cd b7       	in	r28, 0x3d	; 61
     62c:	de b7       	in	r29, 0x3e	; 62
     62e:	9c 83       	std	Y+4, r25	; 0x04
     630:	8b 83       	std	Y+3, r24	; 0x03
		uint8_t i, size;
	// 開始条件の生成
		TWCR = SendStartConditionBit;
     632:	ec eb       	ldi	r30, 0xBC	; 188
     634:	f0 e0       	ldi	r31, 0x00	; 0
     636:	84 ea       	ldi	r24, 0xA4	; 164
     638:	80 83       	st	Z, r24
		while ( I2C_DOING );
     63a:	ec eb       	ldi	r30, 0xBC	; 188
     63c:	f0 e0       	ldi	r31, 0x00	; 0
     63e:	80 81       	ld	r24, Z
     640:	88 23       	and	r24, r24
     642:	dc f7       	brge	.-10     	; 0x63a <i2cReadWithCommand+0x1a>
		if ( I2C_STATUS != SentStartConditionBit ) goto ERROR;
     644:	e9 eb       	ldi	r30, 0xB9	; 185
     646:	f0 e0       	ldi	r31, 0x00	; 0
     648:	80 81       	ld	r24, Z
     64a:	88 2f       	mov	r24, r24
     64c:	90 e0       	ldi	r25, 0x00	; 0
     64e:	88 7f       	andi	r24, 0xF8	; 248
     650:	90 70       	andi	r25, 0x00	; 0
     652:	88 30       	cpi	r24, 0x08	; 8
     654:	91 05       	cpc	r25, r1
     656:	09 f0       	breq	.+2      	; 0x65a <i2cReadWithCommand+0x3a>
     658:	a4 c0       	rjmp	.+328    	; 0x7a2 <i2cReadWithCommand+0x182>
    
	// アドレス転送
		TWDR = ( slave->address << 1 ) | READ;
     65a:	ab eb       	ldi	r26, 0xBB	; 187
     65c:	b0 e0       	ldi	r27, 0x00	; 0
     65e:	eb 81       	ldd	r30, Y+3	; 0x03
     660:	fc 81       	ldd	r31, Y+4	; 0x04
     662:	80 81       	ld	r24, Z
     664:	88 2f       	mov	r24, r24
     666:	90 e0       	ldi	r25, 0x00	; 0
     668:	88 0f       	add	r24, r24
     66a:	99 1f       	adc	r25, r25
     66c:	81 60       	ori	r24, 0x01	; 1
     66e:	8c 93       	st	X, r24
		TWCR = ContinueI2C;
     670:	ec eb       	ldi	r30, 0xBC	; 188
     672:	f0 e0       	ldi	r31, 0x00	; 0
     674:	84 e8       	ldi	r24, 0x84	; 132
     676:	80 83       	st	Z, r24
		while ( I2C_DOING );
     678:	ec eb       	ldi	r30, 0xBC	; 188
     67a:	f0 e0       	ldi	r31, 0x00	; 0
     67c:	80 81       	ld	r24, Z
     67e:	88 23       	and	r24, r24
     680:	dc f7       	brge	.-10     	; 0x678 <i2cReadWithCommand+0x58>
		if ( I2C_STATUS != SentSlaveAddressWithReadBitAndACK ) goto ERROR;
     682:	e9 eb       	ldi	r30, 0xB9	; 185
     684:	f0 e0       	ldi	r31, 0x00	; 0
     686:	80 81       	ld	r24, Z
     688:	88 2f       	mov	r24, r24
     68a:	90 e0       	ldi	r25, 0x00	; 0
     68c:	88 7f       	andi	r24, 0xF8	; 248
     68e:	90 70       	andi	r25, 0x00	; 0
     690:	80 34       	cpi	r24, 0x40	; 64
     692:	91 05       	cpc	r25, r1
     694:	09 f0       	breq	.+2      	; 0x698 <i2cReadWithCommand+0x78>
     696:	85 c0       	rjmp	.+266    	; 0x7a2 <i2cReadWithCommand+0x182>
    
	// コマンド転送，ACK確認
		for ( i = 0, size = slave->write.size; i < size; i++ ) {
     698:	1a 82       	std	Y+2, r1	; 0x02
     69a:	eb 81       	ldd	r30, Y+3	; 0x03
     69c:	fc 81       	ldd	r31, Y+4	; 0x04
     69e:	83 81       	ldd	r24, Z+3	; 0x03
     6a0:	89 83       	std	Y+1, r24	; 0x01
     6a2:	25 c0       	rjmp	.+74     	; 0x6ee <i2cReadWithCommand+0xce>
			TWDR = slave->write.buffer[i];
     6a4:	ab eb       	ldi	r26, 0xBB	; 187
     6a6:	b0 e0       	ldi	r27, 0x00	; 0
     6a8:	eb 81       	ldd	r30, Y+3	; 0x03
     6aa:	fc 81       	ldd	r31, Y+4	; 0x04
     6ac:	21 81       	ldd	r18, Z+1	; 0x01
     6ae:	32 81       	ldd	r19, Z+2	; 0x02
     6b0:	8a 81       	ldd	r24, Y+2	; 0x02
     6b2:	88 2f       	mov	r24, r24
     6b4:	90 e0       	ldi	r25, 0x00	; 0
     6b6:	f9 01       	movw	r30, r18
     6b8:	e8 0f       	add	r30, r24
     6ba:	f9 1f       	adc	r31, r25
     6bc:	80 81       	ld	r24, Z
     6be:	8c 93       	st	X, r24
			TWCR = ContinueI2C;
     6c0:	ec eb       	ldi	r30, 0xBC	; 188
     6c2:	f0 e0       	ldi	r31, 0x00	; 0
     6c4:	84 e8       	ldi	r24, 0x84	; 132
     6c6:	80 83       	st	Z, r24
			while ( I2C_DOING );
     6c8:	ec eb       	ldi	r30, 0xBC	; 188
     6ca:	f0 e0       	ldi	r31, 0x00	; 0
     6cc:	80 81       	ld	r24, Z
     6ce:	88 23       	and	r24, r24
     6d0:	dc f7       	brge	.-10     	; 0x6c8 <i2cReadWithCommand+0xa8>
			if ( I2C_STATUS != SentDataByteAndACKAtMaster ) goto ERROR;
     6d2:	e9 eb       	ldi	r30, 0xB9	; 185
     6d4:	f0 e0       	ldi	r31, 0x00	; 0
     6d6:	80 81       	ld	r24, Z
     6d8:	88 2f       	mov	r24, r24
     6da:	90 e0       	ldi	r25, 0x00	; 0
     6dc:	88 7f       	andi	r24, 0xF8	; 248
     6de:	90 70       	andi	r25, 0x00	; 0
     6e0:	88 32       	cpi	r24, 0x28	; 40
     6e2:	91 05       	cpc	r25, r1
     6e4:	09 f0       	breq	.+2      	; 0x6e8 <i2cReadWithCommand+0xc8>
     6e6:	5d c0       	rjmp	.+186    	; 0x7a2 <i2cReadWithCommand+0x182>
		TWCR = ContinueI2C;
		while ( I2C_DOING );
		if ( I2C_STATUS != SentSlaveAddressWithReadBitAndACK ) goto ERROR;
    
	// コマンド転送，ACK確認
		for ( i = 0, size = slave->write.size; i < size; i++ ) {
     6e8:	8a 81       	ldd	r24, Y+2	; 0x02
     6ea:	8f 5f       	subi	r24, 0xFF	; 255
     6ec:	8a 83       	std	Y+2, r24	; 0x02
     6ee:	9a 81       	ldd	r25, Y+2	; 0x02
     6f0:	89 81       	ldd	r24, Y+1	; 0x01
     6f2:	98 17       	cp	r25, r24
     6f4:	b8 f2       	brcs	.-82     	; 0x6a4 <i2cReadWithCommand+0x84>
			while ( I2C_DOING );
			if ( I2C_STATUS != SentDataByteAndACKAtMaster ) goto ERROR;
		}
    
	// データバイト受信，ACK発行の一連をデータサイズ-1分行う
		for ( i = 0, size = slave->read.size - 1; i < size; i++ ){
     6f6:	1a 82       	std	Y+2, r1	; 0x02
     6f8:	eb 81       	ldd	r30, Y+3	; 0x03
     6fa:	fc 81       	ldd	r31, Y+4	; 0x04
     6fc:	86 81       	ldd	r24, Z+6	; 0x06
     6fe:	81 50       	subi	r24, 0x01	; 1
     700:	89 83       	std	Y+1, r24	; 0x01
     702:	24 c0       	rjmp	.+72     	; 0x74c <i2cReadWithCommand+0x12c>
		    TWCR = ContinueAndResponseI2C;
     704:	ec eb       	ldi	r30, 0xBC	; 188
     706:	f0 e0       	ldi	r31, 0x00	; 0
     708:	84 ec       	ldi	r24, 0xC4	; 196
     70a:	80 83       	st	Z, r24
		    while( I2C_DOING );
     70c:	ec eb       	ldi	r30, 0xBC	; 188
     70e:	f0 e0       	ldi	r31, 0x00	; 0
     710:	80 81       	ld	r24, Z
     712:	88 23       	and	r24, r24
     714:	dc f7       	brge	.-10     	; 0x70c <i2cReadWithCommand+0xec>
		    if ( I2C_STATUS != ReceivedDataByteAndACKAtMaster ) goto ERROR;
     716:	e9 eb       	ldi	r30, 0xB9	; 185
     718:	f0 e0       	ldi	r31, 0x00	; 0
     71a:	80 81       	ld	r24, Z
     71c:	88 2f       	mov	r24, r24
     71e:	90 e0       	ldi	r25, 0x00	; 0
     720:	88 7f       	andi	r24, 0xF8	; 248
     722:	90 70       	andi	r25, 0x00	; 0
     724:	80 35       	cpi	r24, 0x50	; 80
     726:	91 05       	cpc	r25, r1
     728:	e1 f5       	brne	.+120    	; 0x7a2 <i2cReadWithCommand+0x182>
		    slave->read.buffer[i] = TWDR;
     72a:	eb 81       	ldd	r30, Y+3	; 0x03
     72c:	fc 81       	ldd	r31, Y+4	; 0x04
     72e:	24 81       	ldd	r18, Z+4	; 0x04
     730:	35 81       	ldd	r19, Z+5	; 0x05
     732:	8a 81       	ldd	r24, Y+2	; 0x02
     734:	88 2f       	mov	r24, r24
     736:	90 e0       	ldi	r25, 0x00	; 0
     738:	d9 01       	movw	r26, r18
     73a:	a8 0f       	add	r26, r24
     73c:	b9 1f       	adc	r27, r25
     73e:	eb eb       	ldi	r30, 0xBB	; 187
     740:	f0 e0       	ldi	r31, 0x00	; 0
     742:	80 81       	ld	r24, Z
     744:	8c 93       	st	X, r24
			while ( I2C_DOING );
			if ( I2C_STATUS != SentDataByteAndACKAtMaster ) goto ERROR;
		}
    
	// データバイト受信，ACK発行の一連をデータサイズ-1分行う
		for ( i = 0, size = slave->read.size - 1; i < size; i++ ){
     746:	8a 81       	ldd	r24, Y+2	; 0x02
     748:	8f 5f       	subi	r24, 0xFF	; 255
     74a:	8a 83       	std	Y+2, r24	; 0x02
     74c:	9a 81       	ldd	r25, Y+2	; 0x02
     74e:	89 81       	ldd	r24, Y+1	; 0x01
     750:	98 17       	cp	r25, r24
     752:	c0 f2       	brcs	.-80     	; 0x704 <i2cReadWithCommand+0xe4>
		    if ( I2C_STATUS != ReceivedDataByteAndACKAtMaster ) goto ERROR;
		    slave->read.buffer[i] = TWDR;
		}
    
	// 最終データバイト受信，NACK発行
		TWCR = ContinueI2C;
     754:	ec eb       	ldi	r30, 0xBC	; 188
     756:	f0 e0       	ldi	r31, 0x00	; 0
     758:	84 e8       	ldi	r24, 0x84	; 132
     75a:	80 83       	st	Z, r24
		while ( I2C_DOING );
     75c:	ec eb       	ldi	r30, 0xBC	; 188
     75e:	f0 e0       	ldi	r31, 0x00	; 0
     760:	80 81       	ld	r24, Z
     762:	88 23       	and	r24, r24
     764:	dc f7       	brge	.-10     	; 0x75c <i2cReadWithCommand+0x13c>
		if ( I2C_STATUS != ReceivedDataByteAndNACK ) goto ERROR;
     766:	e9 eb       	ldi	r30, 0xB9	; 185
     768:	f0 e0       	ldi	r31, 0x00	; 0
     76a:	80 81       	ld	r24, Z
     76c:	88 2f       	mov	r24, r24
     76e:	90 e0       	ldi	r25, 0x00	; 0
     770:	88 7f       	andi	r24, 0xF8	; 248
     772:	90 70       	andi	r25, 0x00	; 0
     774:	80 35       	cpi	r24, 0x50	; 80
     776:	91 05       	cpc	r25, r1
     778:	a1 f4       	brne	.+40     	; 0x7a2 <i2cReadWithCommand+0x182>
		slave->read.buffer[size] = TWDR;
     77a:	eb 81       	ldd	r30, Y+3	; 0x03
     77c:	fc 81       	ldd	r31, Y+4	; 0x04
     77e:	24 81       	ldd	r18, Z+4	; 0x04
     780:	35 81       	ldd	r19, Z+5	; 0x05
     782:	89 81       	ldd	r24, Y+1	; 0x01
     784:	88 2f       	mov	r24, r24
     786:	90 e0       	ldi	r25, 0x00	; 0
     788:	d9 01       	movw	r26, r18
     78a:	a8 0f       	add	r26, r24
     78c:	b9 1f       	adc	r27, r25
     78e:	eb eb       	ldi	r30, 0xBB	; 187
     790:	f0 e0       	ldi	r31, 0x00	; 0
     792:	80 81       	ld	r24, Z
     794:	8c 93       	st	X, r24
    
	// 終了条件の生成
		TWCR = SendStopConditionBit;
     796:	ec eb       	ldi	r30, 0xBC	; 188
     798:	f0 e0       	ldi	r31, 0x00	; 0
     79a:	84 e9       	ldi	r24, 0x94	; 148
     79c:	80 83       	st	Z, r24
    
	// 正常終了
		return false;
     79e:	1d 82       	std	Y+5, r1	; 0x05
     7a0:	06 c0       	rjmp	.+12     	; 0x7ae <i2cReadWithCommand+0x18e>
    
	// エラーケース
ERROR:
		TWCR = SendStopConditionBit;
     7a2:	ec eb       	ldi	r30, 0xBC	; 188
     7a4:	f0 e0       	ldi	r31, 0x00	; 0
     7a6:	84 e9       	ldi	r24, 0x94	; 148
     7a8:	80 83       	st	Z, r24
		return true;
     7aa:	81 e0       	ldi	r24, 0x01	; 1
     7ac:	8d 83       	std	Y+5, r24	; 0x05
     7ae:	8d 81       	ldd	r24, Y+5	; 0x05
}
     7b0:	0f 90       	pop	r0
     7b2:	0f 90       	pop	r0
     7b4:	0f 90       	pop	r0
     7b6:	0f 90       	pop	r0
     7b8:	0f 90       	pop	r0
     7ba:	cf 91       	pop	r28
     7bc:	df 91       	pop	r29
     7be:	08 95       	ret

000007c0 <setMU2PutFunc>:
/**
 * シリアル送信関数用ポインタセッター関数
 * @param[in] f {void(*)(void)}
 */
void setMU2PutFunc(void(*f)(uint8_t))
{
     7c0:	df 93       	push	r29
     7c2:	cf 93       	push	r28
     7c4:	00 d0       	rcall	.+0      	; 0x7c6 <setMU2PutFunc+0x6>
     7c6:	cd b7       	in	r28, 0x3d	; 61
     7c8:	de b7       	in	r29, 0x3e	; 62
     7ca:	9a 83       	std	Y+2, r25	; 0x02
     7cc:	89 83       	std	Y+1, r24	; 0x01
	put = f;
     7ce:	89 81       	ldd	r24, Y+1	; 0x01
     7d0:	9a 81       	ldd	r25, Y+2	; 0x02
     7d2:	90 93 65 03 	sts	0x0365, r25
     7d6:	80 93 64 03 	sts	0x0364, r24
}
     7da:	0f 90       	pop	r0
     7dc:	0f 90       	pop	r0
     7de:	cf 91       	pop	r28
     7e0:	df 91       	pop	r29
     7e2:	08 95       	ret

000007e4 <setMU2GetFunc>:
/**
 * シリアル受信関数用ポインタセッター関数
 * @param[in] f {uint8_t(*)(void)}
 */
void setMU2GetFunc(uint8_t(*f)(void))
{
     7e4:	df 93       	push	r29
     7e6:	cf 93       	push	r28
     7e8:	00 d0       	rcall	.+0      	; 0x7ea <setMU2GetFunc+0x6>
     7ea:	cd b7       	in	r28, 0x3d	; 61
     7ec:	de b7       	in	r29, 0x3e	; 62
     7ee:	9a 83       	std	Y+2, r25	; 0x02
     7f0:	89 83       	std	Y+1, r24	; 0x01
	get = f;
     7f2:	89 81       	ldd	r24, Y+1	; 0x01
     7f4:	9a 81       	ldd	r25, Y+2	; 0x02
     7f6:	90 93 67 03 	sts	0x0367, r25
     7fa:	80 93 66 03 	sts	0x0366, r24
}
     7fe:	0f 90       	pop	r0
     800:	0f 90       	pop	r0
     802:	cf 91       	pop	r28
     804:	df 91       	pop	r29
     806:	08 95       	ret

00000808 <byteToString>:
 * 1Byte->16進文字列変換関数
 * @param[in] byte {uint8_t} 変換対象データ
 * @param[out] string {char*} 変換後文字列格納先ポインタ
 */
void byteToString(uint8_t byte, char* string)
{
     808:	df 93       	push	r29
     80a:	cf 93       	push	r28
     80c:	00 d0       	rcall	.+0      	; 0x80e <byteToString+0x6>
     80e:	0f 92       	push	r0
     810:	cd b7       	in	r28, 0x3d	; 61
     812:	de b7       	in	r29, 0x3e	; 62
     814:	89 83       	std	Y+1, r24	; 0x01
     816:	7b 83       	std	Y+3, r23	; 0x03
     818:	6a 83       	std	Y+2, r22	; 0x02
	string[0] = ascii[ ( byte >> 4 ) & 0x0F ];
     81a:	89 81       	ldd	r24, Y+1	; 0x01
     81c:	82 95       	swap	r24
     81e:	8f 70       	andi	r24, 0x0F	; 15
     820:	88 2f       	mov	r24, r24
     822:	90 e0       	ldi	r25, 0x00	; 0
     824:	fc 01       	movw	r30, r24
     826:	e1 5d       	subi	r30, 0xD1	; 209
     828:	fc 4f       	sbci	r31, 0xFC	; 252
     82a:	80 81       	ld	r24, Z
     82c:	ea 81       	ldd	r30, Y+2	; 0x02
     82e:	fb 81       	ldd	r31, Y+3	; 0x03
     830:	80 83       	st	Z, r24
	string[1] = ascii[ byte & 0x0F ];
     832:	8a 81       	ldd	r24, Y+2	; 0x02
     834:	9b 81       	ldd	r25, Y+3	; 0x03
     836:	dc 01       	movw	r26, r24
     838:	11 96       	adiw	r26, 0x01	; 1
     83a:	89 81       	ldd	r24, Y+1	; 0x01
     83c:	88 2f       	mov	r24, r24
     83e:	90 e0       	ldi	r25, 0x00	; 0
     840:	8f 70       	andi	r24, 0x0F	; 15
     842:	90 70       	andi	r25, 0x00	; 0
     844:	fc 01       	movw	r30, r24
     846:	e1 5d       	subi	r30, 0xD1	; 209
     848:	fc 4f       	sbci	r31, 0xFC	; 252
     84a:	80 81       	ld	r24, Z
     84c:	8c 93       	st	X, r24
	string[2] = '\0';
     84e:	8a 81       	ldd	r24, Y+2	; 0x02
     850:	9b 81       	ldd	r25, Y+3	; 0x03
     852:	fc 01       	movw	r30, r24
     854:	32 96       	adiw	r30, 0x02	; 2
     856:	10 82       	st	Z, r1
}
     858:	0f 90       	pop	r0
     85a:	0f 90       	pop	r0
     85c:	0f 90       	pop	r0
     85e:	cf 91       	pop	r28
     860:	df 91       	pop	r29
     862:	08 95       	ret

00000864 <mu2Command>:
 * MU2にコマンドを送信する関数
 * @param[in] command {const char*} MU2に送信するコマンド
 * @param[in] values {uint8_t*} コマンドに付加するデータ
 */
bool mu2Command(const char* command, char* values)
{
     864:	0f 93       	push	r16
     866:	1f 93       	push	r17
     868:	df 93       	push	r29
     86a:	cf 93       	push	r28
     86c:	cd b7       	in	r28, 0x3d	; 61
     86e:	de b7       	in	r29, 0x3e	; 62
     870:	60 97       	sbiw	r28, 0x10	; 16
     872:	0f b6       	in	r0, 0x3f	; 63
     874:	f8 94       	cli
     876:	de bf       	out	0x3e, r29	; 62
     878:	0f be       	out	0x3f, r0	; 63
     87a:	cd bf       	out	0x3d, r28	; 61
     87c:	9d 87       	std	Y+13, r25	; 0x0d
     87e:	8c 87       	std	Y+12, r24	; 0x0c
     880:	7f 87       	std	Y+15, r23	; 0x0f
     882:	6e 87       	std	Y+14, r22	; 0x0e
	uint8_t i, recv[10];
	
	put('@');
     884:	e0 91 64 03 	lds	r30, 0x0364
     888:	f0 91 65 03 	lds	r31, 0x0365
     88c:	80 e4       	ldi	r24, 0x40	; 64
     88e:	09 95       	icall
	put(command[0]);
     890:	20 91 64 03 	lds	r18, 0x0364
     894:	30 91 65 03 	lds	r19, 0x0365
     898:	ec 85       	ldd	r30, Y+12	; 0x0c
     89a:	fd 85       	ldd	r31, Y+13	; 0x0d
     89c:	80 81       	ld	r24, Z
     89e:	f9 01       	movw	r30, r18
     8a0:	09 95       	icall
	put(command[1]);
     8a2:	20 91 64 03 	lds	r18, 0x0364
     8a6:	30 91 65 03 	lds	r19, 0x0365
     8aa:	8c 85       	ldd	r24, Y+12	; 0x0c
     8ac:	9d 85       	ldd	r25, Y+13	; 0x0d
     8ae:	fc 01       	movw	r30, r24
     8b0:	31 96       	adiw	r30, 0x01	; 1
     8b2:	80 81       	ld	r24, Z
     8b4:	f9 01       	movw	r30, r18
     8b6:	09 95       	icall
     8b8:	0e c0       	rjmp	.+28     	; 0x8d6 <mu2Command+0x72>
	for ( ; *values != '\0'; values++ ) {
		put(*values);
     8ba:	20 91 64 03 	lds	r18, 0x0364
     8be:	30 91 65 03 	lds	r19, 0x0365
     8c2:	ee 85       	ldd	r30, Y+14	; 0x0e
     8c4:	ff 85       	ldd	r31, Y+15	; 0x0f
     8c6:	80 81       	ld	r24, Z
     8c8:	f9 01       	movw	r30, r18
     8ca:	09 95       	icall
	uint8_t i, recv[10];
	
	put('@');
	put(command[0]);
	put(command[1]);
	for ( ; *values != '\0'; values++ ) {
     8cc:	8e 85       	ldd	r24, Y+14	; 0x0e
     8ce:	9f 85       	ldd	r25, Y+15	; 0x0f
     8d0:	01 96       	adiw	r24, 0x01	; 1
     8d2:	9f 87       	std	Y+15, r25	; 0x0f
     8d4:	8e 87       	std	Y+14, r24	; 0x0e
     8d6:	ee 85       	ldd	r30, Y+14	; 0x0e
     8d8:	ff 85       	ldd	r31, Y+15	; 0x0f
     8da:	80 81       	ld	r24, Z
     8dc:	88 23       	and	r24, r24
     8de:	69 f7       	brne	.-38     	; 0x8ba <mu2Command+0x56>
		put(*values);
	}
	put(0x0d);
     8e0:	e0 91 64 03 	lds	r30, 0x0364
     8e4:	f0 91 65 03 	lds	r31, 0x0365
     8e8:	8d e0       	ldi	r24, 0x0D	; 13
     8ea:	09 95       	icall
	put(0x0a);
     8ec:	e0 91 64 03 	lds	r30, 0x0364
     8f0:	f0 91 65 03 	lds	r31, 0x0365
     8f4:	8a e0       	ldi	r24, 0x0A	; 10
     8f6:	09 95       	icall
	
	for ( i = 0; i < 10; i++ ){
     8f8:	19 82       	std	Y+1, r1	; 0x01
     8fa:	2e c0       	rjmp	.+92     	; 0x958 <mu2Command+0xf4>
		recv[i] = get();
     8fc:	89 81       	ldd	r24, Y+1	; 0x01
     8fe:	08 2f       	mov	r16, r24
     900:	10 e0       	ldi	r17, 0x00	; 0
     902:	e0 91 66 03 	lds	r30, 0x0366
     906:	f0 91 67 03 	lds	r31, 0x0367
     90a:	09 95       	icall
     90c:	28 2f       	mov	r18, r24
     90e:	ce 01       	movw	r24, r28
     910:	02 96       	adiw	r24, 0x02	; 2
     912:	fc 01       	movw	r30, r24
     914:	e0 0f       	add	r30, r16
     916:	f1 1f       	adc	r31, r17
     918:	20 83       	st	Z, r18
		if( i > 0 && recv[i-1] == 0x0d && recv[i] == 0x0a ) {
     91a:	89 81       	ldd	r24, Y+1	; 0x01
     91c:	88 23       	and	r24, r24
     91e:	c9 f0       	breq	.+50     	; 0x952 <mu2Command+0xee>
     920:	89 81       	ldd	r24, Y+1	; 0x01
     922:	88 2f       	mov	r24, r24
     924:	90 e0       	ldi	r25, 0x00	; 0
     926:	9c 01       	movw	r18, r24
     928:	21 50       	subi	r18, 0x01	; 1
     92a:	30 40       	sbci	r19, 0x00	; 0
     92c:	ce 01       	movw	r24, r28
     92e:	02 96       	adiw	r24, 0x02	; 2
     930:	fc 01       	movw	r30, r24
     932:	e2 0f       	add	r30, r18
     934:	f3 1f       	adc	r31, r19
     936:	80 81       	ld	r24, Z
     938:	8d 30       	cpi	r24, 0x0D	; 13
     93a:	59 f4       	brne	.+22     	; 0x952 <mu2Command+0xee>
     93c:	89 81       	ldd	r24, Y+1	; 0x01
     93e:	28 2f       	mov	r18, r24
     940:	30 e0       	ldi	r19, 0x00	; 0
     942:	ce 01       	movw	r24, r28
     944:	02 96       	adiw	r24, 0x02	; 2
     946:	fc 01       	movw	r30, r24
     948:	e2 0f       	add	r30, r18
     94a:	f3 1f       	adc	r31, r19
     94c:	80 81       	ld	r24, Z
     94e:	8a 30       	cpi	r24, 0x0A	; 10
     950:	31 f0       	breq	.+12     	; 0x95e <mu2Command+0xfa>
		put(*values);
	}
	put(0x0d);
	put(0x0a);
	
	for ( i = 0; i < 10; i++ ){
     952:	89 81       	ldd	r24, Y+1	; 0x01
     954:	8f 5f       	subi	r24, 0xFF	; 255
     956:	89 83       	std	Y+1, r24	; 0x01
     958:	89 81       	ldd	r24, Y+1	; 0x01
     95a:	8a 30       	cpi	r24, 0x0A	; 10
     95c:	78 f2       	brcs	.-98     	; 0x8fc <mu2Command+0x98>
		recv[i] = get();
		if( i > 0 && recv[i-1] == 0x0d && recv[i] == 0x0a ) {
			break;
		}
	}
	if ( recv[1] == 'E' && recv[2] == 'R' ) {
     95e:	8b 81       	ldd	r24, Y+3	; 0x03
     960:	85 34       	cpi	r24, 0x45	; 69
     962:	31 f4       	brne	.+12     	; 0x970 <mu2Command+0x10c>
     964:	8c 81       	ldd	r24, Y+4	; 0x04
     966:	82 35       	cpi	r24, 0x52	; 82
     968:	19 f4       	brne	.+6      	; 0x970 <mu2Command+0x10c>
		return true;
     96a:	81 e0       	ldi	r24, 0x01	; 1
     96c:	88 8b       	std	Y+16, r24	; 0x10
     96e:	01 c0       	rjmp	.+2      	; 0x972 <mu2Command+0x10e>
	}
	
	return false;
     970:	18 8a       	std	Y+16, r1	; 0x10
     972:	88 89       	ldd	r24, Y+16	; 0x10
}
     974:	60 96       	adiw	r28, 0x10	; 16
     976:	0f b6       	in	r0, 0x3f	; 63
     978:	f8 94       	cli
     97a:	de bf       	out	0x3e, r29	; 62
     97c:	0f be       	out	0x3f, r0	; 63
     97e:	cd bf       	out	0x3d, r28	; 61
     980:	cf 91       	pop	r28
     982:	df 91       	pop	r29
     984:	1f 91       	pop	r17
     986:	0f 91       	pop	r16
     988:	08 95       	ret

0000098a <mu2CommandToEEPROM>:
 * MU2にコマンドを送信し，MU2のEEPROMに書きこむ関数
 * @param[in] command {const char*} MU2に送信するコマンド
 * @param[in] values {uint8_t*} コマンドに付加するデータ
 */
bool mu2CommandToEEPROM(const char *command, uint8_t* values)
{
     98a:	0f 93       	push	r16
     98c:	1f 93       	push	r17
     98e:	df 93       	push	r29
     990:	cf 93       	push	r28
     992:	cd b7       	in	r28, 0x3d	; 61
     994:	de b7       	in	r29, 0x3e	; 62
     996:	60 97       	sbiw	r28, 0x10	; 16
     998:	0f b6       	in	r0, 0x3f	; 63
     99a:	f8 94       	cli
     99c:	de bf       	out	0x3e, r29	; 62
     99e:	0f be       	out	0x3f, r0	; 63
     9a0:	cd bf       	out	0x3d, r28	; 61
     9a2:	9d 87       	std	Y+13, r25	; 0x0d
     9a4:	8c 87       	std	Y+12, r24	; 0x0c
     9a6:	7f 87       	std	Y+15, r23	; 0x0f
     9a8:	6e 87       	std	Y+14, r22	; 0x0e
	uint8_t i, recv[10];
	
	put('@');
     9aa:	e0 91 64 03 	lds	r30, 0x0364
     9ae:	f0 91 65 03 	lds	r31, 0x0365
     9b2:	80 e4       	ldi	r24, 0x40	; 64
     9b4:	09 95       	icall
	put(command[0]);
     9b6:	20 91 64 03 	lds	r18, 0x0364
     9ba:	30 91 65 03 	lds	r19, 0x0365
     9be:	ec 85       	ldd	r30, Y+12	; 0x0c
     9c0:	fd 85       	ldd	r31, Y+13	; 0x0d
     9c2:	80 81       	ld	r24, Z
     9c4:	f9 01       	movw	r30, r18
     9c6:	09 95       	icall
	put(command[1]);
     9c8:	20 91 64 03 	lds	r18, 0x0364
     9cc:	30 91 65 03 	lds	r19, 0x0365
     9d0:	8c 85       	ldd	r24, Y+12	; 0x0c
     9d2:	9d 85       	ldd	r25, Y+13	; 0x0d
     9d4:	fc 01       	movw	r30, r24
     9d6:	31 96       	adiw	r30, 0x01	; 1
     9d8:	80 81       	ld	r24, Z
     9da:	f9 01       	movw	r30, r18
     9dc:	09 95       	icall
     9de:	0e c0       	rjmp	.+28     	; 0x9fc <mu2CommandToEEPROM+0x72>
	for ( ; *values != '\0'; values++ ) {
		put(*values);
     9e0:	20 91 64 03 	lds	r18, 0x0364
     9e4:	30 91 65 03 	lds	r19, 0x0365
     9e8:	ee 85       	ldd	r30, Y+14	; 0x0e
     9ea:	ff 85       	ldd	r31, Y+15	; 0x0f
     9ec:	80 81       	ld	r24, Z
     9ee:	f9 01       	movw	r30, r18
     9f0:	09 95       	icall
	uint8_t i, recv[10];
	
	put('@');
	put(command[0]);
	put(command[1]);
	for ( ; *values != '\0'; values++ ) {
     9f2:	8e 85       	ldd	r24, Y+14	; 0x0e
     9f4:	9f 85       	ldd	r25, Y+15	; 0x0f
     9f6:	01 96       	adiw	r24, 0x01	; 1
     9f8:	9f 87       	std	Y+15, r25	; 0x0f
     9fa:	8e 87       	std	Y+14, r24	; 0x0e
     9fc:	ee 85       	ldd	r30, Y+14	; 0x0e
     9fe:	ff 85       	ldd	r31, Y+15	; 0x0f
     a00:	80 81       	ld	r24, Z
     a02:	88 23       	and	r24, r24
     a04:	69 f7       	brne	.-38     	; 0x9e0 <mu2CommandToEEPROM+0x56>
		put(*values);
	}
	put('/');
     a06:	e0 91 64 03 	lds	r30, 0x0364
     a0a:	f0 91 65 03 	lds	r31, 0x0365
     a0e:	8f e2       	ldi	r24, 0x2F	; 47
     a10:	09 95       	icall
	put('W');
     a12:	e0 91 64 03 	lds	r30, 0x0364
     a16:	f0 91 65 03 	lds	r31, 0x0365
     a1a:	87 e5       	ldi	r24, 0x57	; 87
     a1c:	09 95       	icall
	put(0x0d);
     a1e:	e0 91 64 03 	lds	r30, 0x0364
     a22:	f0 91 65 03 	lds	r31, 0x0365
     a26:	8d e0       	ldi	r24, 0x0D	; 13
     a28:	09 95       	icall
	put(0x0a);
     a2a:	e0 91 64 03 	lds	r30, 0x0364
     a2e:	f0 91 65 03 	lds	r31, 0x0365
     a32:	8a e0       	ldi	r24, 0x0A	; 10
     a34:	09 95       	icall
	
	for ( i = 0; i < 10; i++ ){
     a36:	19 82       	std	Y+1, r1	; 0x01
     a38:	2e c0       	rjmp	.+92     	; 0xa96 <mu2CommandToEEPROM+0x10c>
		recv[i] = get();
     a3a:	89 81       	ldd	r24, Y+1	; 0x01
     a3c:	08 2f       	mov	r16, r24
     a3e:	10 e0       	ldi	r17, 0x00	; 0
     a40:	e0 91 66 03 	lds	r30, 0x0366
     a44:	f0 91 67 03 	lds	r31, 0x0367
     a48:	09 95       	icall
     a4a:	28 2f       	mov	r18, r24
     a4c:	ce 01       	movw	r24, r28
     a4e:	02 96       	adiw	r24, 0x02	; 2
     a50:	fc 01       	movw	r30, r24
     a52:	e0 0f       	add	r30, r16
     a54:	f1 1f       	adc	r31, r17
     a56:	20 83       	st	Z, r18
		if( i > 0 && recv[i-1] == 0x0d && recv[i] == 0x0a ) {
     a58:	89 81       	ldd	r24, Y+1	; 0x01
     a5a:	88 23       	and	r24, r24
     a5c:	c9 f0       	breq	.+50     	; 0xa90 <mu2CommandToEEPROM+0x106>
     a5e:	89 81       	ldd	r24, Y+1	; 0x01
     a60:	88 2f       	mov	r24, r24
     a62:	90 e0       	ldi	r25, 0x00	; 0
     a64:	9c 01       	movw	r18, r24
     a66:	21 50       	subi	r18, 0x01	; 1
     a68:	30 40       	sbci	r19, 0x00	; 0
     a6a:	ce 01       	movw	r24, r28
     a6c:	02 96       	adiw	r24, 0x02	; 2
     a6e:	fc 01       	movw	r30, r24
     a70:	e2 0f       	add	r30, r18
     a72:	f3 1f       	adc	r31, r19
     a74:	80 81       	ld	r24, Z
     a76:	8d 30       	cpi	r24, 0x0D	; 13
     a78:	59 f4       	brne	.+22     	; 0xa90 <mu2CommandToEEPROM+0x106>
     a7a:	89 81       	ldd	r24, Y+1	; 0x01
     a7c:	28 2f       	mov	r18, r24
     a7e:	30 e0       	ldi	r19, 0x00	; 0
     a80:	ce 01       	movw	r24, r28
     a82:	02 96       	adiw	r24, 0x02	; 2
     a84:	fc 01       	movw	r30, r24
     a86:	e2 0f       	add	r30, r18
     a88:	f3 1f       	adc	r31, r19
     a8a:	80 81       	ld	r24, Z
     a8c:	8a 30       	cpi	r24, 0x0A	; 10
     a8e:	31 f0       	breq	.+12     	; 0xa9c <mu2CommandToEEPROM+0x112>
	put('/');
	put('W');
	put(0x0d);
	put(0x0a);
	
	for ( i = 0; i < 10; i++ ){
     a90:	89 81       	ldd	r24, Y+1	; 0x01
     a92:	8f 5f       	subi	r24, 0xFF	; 255
     a94:	89 83       	std	Y+1, r24	; 0x01
     a96:	89 81       	ldd	r24, Y+1	; 0x01
     a98:	8a 30       	cpi	r24, 0x0A	; 10
     a9a:	78 f2       	brcs	.-98     	; 0xa3a <mu2CommandToEEPROM+0xb0>
		recv[i] = get();
		if( i > 0 && recv[i-1] == 0x0d && recv[i] == 0x0a ) {
			break;
		}
	}
	if ( recv[1] == 'E' && recv[2] == 'R' ) {
     a9c:	8b 81       	ldd	r24, Y+3	; 0x03
     a9e:	85 34       	cpi	r24, 0x45	; 69
     aa0:	31 f4       	brne	.+12     	; 0xaae <mu2CommandToEEPROM+0x124>
     aa2:	8c 81       	ldd	r24, Y+4	; 0x04
     aa4:	82 35       	cpi	r24, 0x52	; 82
     aa6:	19 f4       	brne	.+6      	; 0xaae <mu2CommandToEEPROM+0x124>
		return true;
     aa8:	81 e0       	ldi	r24, 0x01	; 1
     aaa:	88 8b       	std	Y+16, r24	; 0x10
     aac:	01 c0       	rjmp	.+2      	; 0xab0 <mu2CommandToEEPROM+0x126>
	}
	
	return false;
     aae:	18 8a       	std	Y+16, r1	; 0x10
     ab0:	88 89       	ldd	r24, Y+16	; 0x10
}
     ab2:	60 96       	adiw	r28, 0x10	; 16
     ab4:	0f b6       	in	r0, 0x3f	; 63
     ab6:	f8 94       	cli
     ab8:	de bf       	out	0x3e, r29	; 62
     aba:	0f be       	out	0x3f, r0	; 63
     abc:	cd bf       	out	0x3d, r28	; 61
     abe:	cf 91       	pop	r28
     ac0:	df 91       	pop	r29
     ac2:	1f 91       	pop	r17
     ac4:	0f 91       	pop	r16
     ac6:	08 95       	ret

00000ac8 <mu2TransmitData>:
 * MU2でデータを送信する関数
 * @param[in] command {const char*} MU2に送信するコマンド
 * @param[in] values {uint8_t*} コマンドに付加するデータ
 */
bool mu2TransmitData(uint8_t* values, uint8_t size)
{
     ac8:	0f 93       	push	r16
     aca:	1f 93       	push	r17
     acc:	df 93       	push	r29
     ace:	cf 93       	push	r28
     ad0:	cd b7       	in	r28, 0x3d	; 61
     ad2:	de b7       	in	r29, 0x3e	; 62
     ad4:	62 97       	sbiw	r28, 0x12	; 18
     ad6:	0f b6       	in	r0, 0x3f	; 63
     ad8:	f8 94       	cli
     ada:	de bf       	out	0x3e, r29	; 62
     adc:	0f be       	out	0x3f, r0	; 63
     ade:	cd bf       	out	0x3d, r28	; 61
     ae0:	98 8b       	std	Y+16, r25	; 0x10
     ae2:	8f 87       	std	Y+15, r24	; 0x0f
     ae4:	69 8b       	std	Y+17, r22	; 0x11
	uint8_t i,recv[10];
	char strSize[3];
	byteToString(size,strSize);
     ae6:	9e 01       	movw	r18, r28
     ae8:	24 5f       	subi	r18, 0xF4	; 244
     aea:	3f 4f       	sbci	r19, 0xFF	; 255
     aec:	89 89       	ldd	r24, Y+17	; 0x11
     aee:	b9 01       	movw	r22, r18
     af0:	0e 94 04 04 	call	0x808	; 0x808 <byteToString>
	put('@');
     af4:	e0 91 64 03 	lds	r30, 0x0364
     af8:	f0 91 65 03 	lds	r31, 0x0365
     afc:	80 e4       	ldi	r24, 0x40	; 64
     afe:	09 95       	icall
	put('D');
     b00:	e0 91 64 03 	lds	r30, 0x0364
     b04:	f0 91 65 03 	lds	r31, 0x0365
     b08:	84 e4       	ldi	r24, 0x44	; 68
     b0a:	09 95       	icall
	put('T');
     b0c:	e0 91 64 03 	lds	r30, 0x0364
     b10:	f0 91 65 03 	lds	r31, 0x0365
     b14:	84 e5       	ldi	r24, 0x54	; 84
     b16:	09 95       	icall
	put(strSize[0]);
     b18:	e0 91 64 03 	lds	r30, 0x0364
     b1c:	f0 91 65 03 	lds	r31, 0x0365
     b20:	8c 85       	ldd	r24, Y+12	; 0x0c
     b22:	09 95       	icall
	put(strSize[1]);
     b24:	e0 91 64 03 	lds	r30, 0x0364
     b28:	f0 91 65 03 	lds	r31, 0x0365
     b2c:	8d 85       	ldd	r24, Y+13	; 0x0d
     b2e:	09 95       	icall
	for ( i = 0; i < size; i++ ) {
     b30:	19 82       	std	Y+1, r1	; 0x01
     b32:	12 c0       	rjmp	.+36     	; 0xb58 <mu2TransmitData+0x90>
		put(values[i]);
     b34:	40 91 64 03 	lds	r20, 0x0364
     b38:	50 91 65 03 	lds	r21, 0x0365
     b3c:	89 81       	ldd	r24, Y+1	; 0x01
     b3e:	28 2f       	mov	r18, r24
     b40:	30 e0       	ldi	r19, 0x00	; 0
     b42:	8f 85       	ldd	r24, Y+15	; 0x0f
     b44:	98 89       	ldd	r25, Y+16	; 0x10
     b46:	fc 01       	movw	r30, r24
     b48:	e2 0f       	add	r30, r18
     b4a:	f3 1f       	adc	r31, r19
     b4c:	80 81       	ld	r24, Z
     b4e:	fa 01       	movw	r30, r20
     b50:	09 95       	icall
	put('@');
	put('D');
	put('T');
	put(strSize[0]);
	put(strSize[1]);
	for ( i = 0; i < size; i++ ) {
     b52:	89 81       	ldd	r24, Y+1	; 0x01
     b54:	8f 5f       	subi	r24, 0xFF	; 255
     b56:	89 83       	std	Y+1, r24	; 0x01
     b58:	99 81       	ldd	r25, Y+1	; 0x01
     b5a:	89 89       	ldd	r24, Y+17	; 0x11
     b5c:	98 17       	cp	r25, r24
     b5e:	50 f3       	brcs	.-44     	; 0xb34 <mu2TransmitData+0x6c>
		put(values[i]);
	}
	put(0x0d);
     b60:	e0 91 64 03 	lds	r30, 0x0364
     b64:	f0 91 65 03 	lds	r31, 0x0365
     b68:	8d e0       	ldi	r24, 0x0D	; 13
     b6a:	09 95       	icall
	put(0x0a);
     b6c:	e0 91 64 03 	lds	r30, 0x0364
     b70:	f0 91 65 03 	lds	r31, 0x0365
     b74:	8a e0       	ldi	r24, 0x0A	; 10
     b76:	09 95       	icall

	for ( i = 0; i < 10; i++ ){
     b78:	19 82       	std	Y+1, r1	; 0x01
     b7a:	2e c0       	rjmp	.+92     	; 0xbd8 <mu2TransmitData+0x110>
		recv[i] = get();
     b7c:	89 81       	ldd	r24, Y+1	; 0x01
     b7e:	08 2f       	mov	r16, r24
     b80:	10 e0       	ldi	r17, 0x00	; 0
     b82:	e0 91 66 03 	lds	r30, 0x0366
     b86:	f0 91 67 03 	lds	r31, 0x0367
     b8a:	09 95       	icall
     b8c:	28 2f       	mov	r18, r24
     b8e:	ce 01       	movw	r24, r28
     b90:	02 96       	adiw	r24, 0x02	; 2
     b92:	fc 01       	movw	r30, r24
     b94:	e0 0f       	add	r30, r16
     b96:	f1 1f       	adc	r31, r17
     b98:	20 83       	st	Z, r18
		if( i > 0 && recv[i-1] == 0x0d && recv[i] == 0x0a ) {
     b9a:	89 81       	ldd	r24, Y+1	; 0x01
     b9c:	88 23       	and	r24, r24
     b9e:	c9 f0       	breq	.+50     	; 0xbd2 <mu2TransmitData+0x10a>
     ba0:	89 81       	ldd	r24, Y+1	; 0x01
     ba2:	88 2f       	mov	r24, r24
     ba4:	90 e0       	ldi	r25, 0x00	; 0
     ba6:	9c 01       	movw	r18, r24
     ba8:	21 50       	subi	r18, 0x01	; 1
     baa:	30 40       	sbci	r19, 0x00	; 0
     bac:	ce 01       	movw	r24, r28
     bae:	02 96       	adiw	r24, 0x02	; 2
     bb0:	fc 01       	movw	r30, r24
     bb2:	e2 0f       	add	r30, r18
     bb4:	f3 1f       	adc	r31, r19
     bb6:	80 81       	ld	r24, Z
     bb8:	8d 30       	cpi	r24, 0x0D	; 13
     bba:	59 f4       	brne	.+22     	; 0xbd2 <mu2TransmitData+0x10a>
     bbc:	89 81       	ldd	r24, Y+1	; 0x01
     bbe:	28 2f       	mov	r18, r24
     bc0:	30 e0       	ldi	r19, 0x00	; 0
     bc2:	ce 01       	movw	r24, r28
     bc4:	02 96       	adiw	r24, 0x02	; 2
     bc6:	fc 01       	movw	r30, r24
     bc8:	e2 0f       	add	r30, r18
     bca:	f3 1f       	adc	r31, r19
     bcc:	80 81       	ld	r24, Z
     bce:	8a 30       	cpi	r24, 0x0A	; 10
     bd0:	31 f0       	breq	.+12     	; 0xbde <mu2TransmitData+0x116>
		put(values[i]);
	}
	put(0x0d);
	put(0x0a);

	for ( i = 0; i < 10; i++ ){
     bd2:	89 81       	ldd	r24, Y+1	; 0x01
     bd4:	8f 5f       	subi	r24, 0xFF	; 255
     bd6:	89 83       	std	Y+1, r24	; 0x01
     bd8:	89 81       	ldd	r24, Y+1	; 0x01
     bda:	8a 30       	cpi	r24, 0x0A	; 10
     bdc:	78 f2       	brcs	.-98     	; 0xb7c <mu2TransmitData+0xb4>
		recv[i] = get();
		if( i > 0 && recv[i-1] == 0x0d && recv[i] == 0x0a ) {
			break;
		}
	}
	if ( recv[1] == 'E' && recv[2] == 'R' ) {
     bde:	8b 81       	ldd	r24, Y+3	; 0x03
     be0:	85 34       	cpi	r24, 0x45	; 69
     be2:	31 f4       	brne	.+12     	; 0xbf0 <mu2TransmitData+0x128>
     be4:	8c 81       	ldd	r24, Y+4	; 0x04
     be6:	82 35       	cpi	r24, 0x52	; 82
     be8:	19 f4       	brne	.+6      	; 0xbf0 <mu2TransmitData+0x128>
		return true;
     bea:	81 e0       	ldi	r24, 0x01	; 1
     bec:	8a 8b       	std	Y+18, r24	; 0x12
     bee:	01 c0       	rjmp	.+2      	; 0xbf2 <mu2TransmitData+0x12a>
	}
	
	return false;
     bf0:	1a 8a       	std	Y+18, r1	; 0x12
     bf2:	8a 89       	ldd	r24, Y+18	; 0x12
}
     bf4:	62 96       	adiw	r28, 0x12	; 18
     bf6:	0f b6       	in	r0, 0x3f	; 63
     bf8:	f8 94       	cli
     bfa:	de bf       	out	0x3e, r29	; 62
     bfc:	0f be       	out	0x3f, r0	; 63
     bfe:	cd bf       	out	0x3d, r28	; 61
     c00:	cf 91       	pop	r28
     c02:	df 91       	pop	r29
     c04:	1f 91       	pop	r17
     c06:	0f 91       	pop	r16
     c08:	08 95       	ret

00000c0a <initLED>:
#include <avr/io.h>
#include <stdbool.h>
#include "led.h"

void initLED(void)
{
     c0a:	df 93       	push	r29
     c0c:	cf 93       	push	r28
     c0e:	cd b7       	in	r28, 0x3d	; 61
     c10:	de b7       	in	r29, 0x3e	; 62
	DDRA |= 0x07;
     c12:	a1 e2       	ldi	r26, 0x21	; 33
     c14:	b0 e0       	ldi	r27, 0x00	; 0
     c16:	e1 e2       	ldi	r30, 0x21	; 33
     c18:	f0 e0       	ldi	r31, 0x00	; 0
     c1a:	80 81       	ld	r24, Z
     c1c:	87 60       	ori	r24, 0x07	; 7
     c1e:	8c 93       	st	X, r24
	PORTA |= 0x07;
     c20:	a2 e2       	ldi	r26, 0x22	; 34
     c22:	b0 e0       	ldi	r27, 0x00	; 0
     c24:	e2 e2       	ldi	r30, 0x22	; 34
     c26:	f0 e0       	ldi	r31, 0x00	; 0
     c28:	80 81       	ld	r24, Z
     c2a:	87 60       	ori	r24, 0x07	; 7
     c2c:	8c 93       	st	X, r24
}
     c2e:	cf 91       	pop	r28
     c30:	df 91       	pop	r29
     c32:	08 95       	ret

00000c34 <LED>:

void LED(enum LEDNumber target, bool status)
{
     c34:	df 93       	push	r29
     c36:	cf 93       	push	r28
     c38:	00 d0       	rcall	.+0      	; 0xc3a <LED+0x6>
     c3a:	cd b7       	in	r28, 0x3d	; 61
     c3c:	de b7       	in	r29, 0x3e	; 62
     c3e:	89 83       	std	Y+1, r24	; 0x01
     c40:	6a 83       	std	Y+2, r22	; 0x02
	if(status)	PORTA &= ~_BV(target);
     c42:	8a 81       	ldd	r24, Y+2	; 0x02
     c44:	88 23       	and	r24, r24
     c46:	a9 f0       	breq	.+42     	; 0xc72 <LED+0x3e>
     c48:	a2 e2       	ldi	r26, 0x22	; 34
     c4a:	b0 e0       	ldi	r27, 0x00	; 0
     c4c:	e2 e2       	ldi	r30, 0x22	; 34
     c4e:	f0 e0       	ldi	r31, 0x00	; 0
     c50:	80 81       	ld	r24, Z
     c52:	48 2f       	mov	r20, r24
     c54:	89 81       	ldd	r24, Y+1	; 0x01
     c56:	28 2f       	mov	r18, r24
     c58:	30 e0       	ldi	r19, 0x00	; 0
     c5a:	81 e0       	ldi	r24, 0x01	; 1
     c5c:	90 e0       	ldi	r25, 0x00	; 0
     c5e:	02 2e       	mov	r0, r18
     c60:	02 c0       	rjmp	.+4      	; 0xc66 <LED+0x32>
     c62:	88 0f       	add	r24, r24
     c64:	99 1f       	adc	r25, r25
     c66:	0a 94       	dec	r0
     c68:	e2 f7       	brpl	.-8      	; 0xc62 <LED+0x2e>
     c6a:	80 95       	com	r24
     c6c:	84 23       	and	r24, r20
     c6e:	8c 93       	st	X, r24
     c70:	13 c0       	rjmp	.+38     	; 0xc98 <LED+0x64>
	else		PORTA |= _BV(target);
     c72:	a2 e2       	ldi	r26, 0x22	; 34
     c74:	b0 e0       	ldi	r27, 0x00	; 0
     c76:	e2 e2       	ldi	r30, 0x22	; 34
     c78:	f0 e0       	ldi	r31, 0x00	; 0
     c7a:	80 81       	ld	r24, Z
     c7c:	48 2f       	mov	r20, r24
     c7e:	89 81       	ldd	r24, Y+1	; 0x01
     c80:	28 2f       	mov	r18, r24
     c82:	30 e0       	ldi	r19, 0x00	; 0
     c84:	81 e0       	ldi	r24, 0x01	; 1
     c86:	90 e0       	ldi	r25, 0x00	; 0
     c88:	02 2e       	mov	r0, r18
     c8a:	02 c0       	rjmp	.+4      	; 0xc90 <LED+0x5c>
     c8c:	88 0f       	add	r24, r24
     c8e:	99 1f       	adc	r25, r25
     c90:	0a 94       	dec	r0
     c92:	e2 f7       	brpl	.-8      	; 0xc8c <LED+0x58>
     c94:	84 2b       	or	r24, r20
     c96:	8c 93       	st	X, r24
}
     c98:	0f 90       	pop	r0
     c9a:	0f 90       	pop	r0
     c9c:	cf 91       	pop	r28
     c9e:	df 91       	pop	r29
     ca0:	08 95       	ret

00000ca2 <initSwitch>:
#include "switch.h"

void initSwitch(void)
{
     ca2:	df 93       	push	r29
     ca4:	cf 93       	push	r28
     ca6:	cd b7       	in	r28, 0x3d	; 61
     ca8:	de b7       	in	r29, 0x3e	; 62
	DDRB &= 0xf0;
     caa:	a4 e2       	ldi	r26, 0x24	; 36
     cac:	b0 e0       	ldi	r27, 0x00	; 0
     cae:	e4 e2       	ldi	r30, 0x24	; 36
     cb0:	f0 e0       	ldi	r31, 0x00	; 0
     cb2:	80 81       	ld	r24, Z
     cb4:	80 7f       	andi	r24, 0xF0	; 240
     cb6:	8c 93       	st	X, r24
	PORTB |= 0x0f;
     cb8:	a5 e2       	ldi	r26, 0x25	; 37
     cba:	b0 e0       	ldi	r27, 0x00	; 0
     cbc:	e5 e2       	ldi	r30, 0x25	; 37
     cbe:	f0 e0       	ldi	r31, 0x00	; 0
     cc0:	80 81       	ld	r24, Z
     cc2:	8f 60       	ori	r24, 0x0F	; 15
     cc4:	8c 93       	st	X, r24
}
     cc6:	cf 91       	pop	r28
     cc8:	df 91       	pop	r29
     cca:	08 95       	ret

00000ccc <isSwitch>:

bool isSwitch(unsigned char target)
{
     ccc:	df 93       	push	r29
     cce:	cf 93       	push	r28
     cd0:	00 d0       	rcall	.+0      	; 0xcd2 <isSwitch+0x6>
     cd2:	cd b7       	in	r28, 0x3d	; 61
     cd4:	de b7       	in	r29, 0x3e	; 62
     cd6:	8a 83       	std	Y+2, r24	; 0x02
	unsigned char status;
	
	status = PINB ^ 0xff;
     cd8:	e3 e2       	ldi	r30, 0x23	; 35
     cda:	f0 e0       	ldi	r31, 0x00	; 0
     cdc:	80 81       	ld	r24, Z
     cde:	80 95       	com	r24
     ce0:	89 83       	std	Y+1, r24	; 0x01
	status >>= (target-1); 
     ce2:	89 81       	ldd	r24, Y+1	; 0x01
     ce4:	28 2f       	mov	r18, r24
     ce6:	30 e0       	ldi	r19, 0x00	; 0
     ce8:	8a 81       	ldd	r24, Y+2	; 0x02
     cea:	88 2f       	mov	r24, r24
     cec:	90 e0       	ldi	r25, 0x00	; 0
     cee:	01 97       	sbiw	r24, 0x01	; 1
     cf0:	a9 01       	movw	r20, r18
     cf2:	02 c0       	rjmp	.+4      	; 0xcf8 <isSwitch+0x2c>
     cf4:	55 95       	asr	r21
     cf6:	47 95       	ror	r20
     cf8:	8a 95       	dec	r24
     cfa:	e2 f7       	brpl	.-8      	; 0xcf4 <isSwitch+0x28>
     cfc:	ca 01       	movw	r24, r20
     cfe:	89 83       	std	Y+1, r24	; 0x01

	return (bool)(status & 0x01);
     d00:	89 81       	ldd	r24, Y+1	; 0x01
     d02:	88 2f       	mov	r24, r24
     d04:	90 e0       	ldi	r25, 0x00	; 0
     d06:	81 70       	andi	r24, 0x01	; 1
     d08:	90 70       	andi	r25, 0x00	; 0
}
     d0a:	0f 90       	pop	r0
     d0c:	0f 90       	pop	r0
     d0e:	cf 91       	pop	r28
     d10:	df 91       	pop	r29
     d12:	08 95       	ret

00000d14 <Switch>:
uint8_t Switch(void)
{
     d14:	df 93       	push	r29
     d16:	cf 93       	push	r28
     d18:	cd b7       	in	r28, 0x3d	; 61
     d1a:	de b7       	in	r29, 0x3e	; 62
	return ( PINB ^ 0xff ) & 0x0f;
     d1c:	e3 e2       	ldi	r30, 0x23	; 35
     d1e:	f0 e0       	ldi	r31, 0x00	; 0
     d20:	80 81       	ld	r24, Z
     d22:	80 95       	com	r24
     d24:	8f 70       	andi	r24, 0x0F	; 15
}
     d26:	cf 91       	pop	r28
     d28:	df 91       	pop	r29
     d2a:	08 95       	ret

00000d2c <initIntervalTimer>:
static volatile enum RecievePhases phase = SerchHead;

volatile uint8_t ovfCnt = 0;

void initIntervalTimer(void)
{
     d2c:	df 93       	push	r29
     d2e:	cf 93       	push	r28
     d30:	cd b7       	in	r28, 0x3d	; 61
     d32:	de b7       	in	r29, 0x3e	; 62
	wdt_reset();
     d34:	a8 95       	wdr
	//ウォッチドッグ0.5[s]割り込みリセット無効
	WDTCSR |= _BV(WDCE)|_BV(WDE);
     d36:	a0 e6       	ldi	r26, 0x60	; 96
     d38:	b0 e0       	ldi	r27, 0x00	; 0
     d3a:	e0 e6       	ldi	r30, 0x60	; 96
     d3c:	f0 e0       	ldi	r31, 0x00	; 0
     d3e:	80 81       	ld	r24, Z
     d40:	88 61       	ori	r24, 0x18	; 24
     d42:	8c 93       	st	X, r24
	WDTCSR = _BV(WDP2)|_BV(WDP0);
     d44:	e0 e6       	ldi	r30, 0x60	; 96
     d46:	f0 e0       	ldi	r31, 0x00	; 0
     d48:	85 e0       	ldi	r24, 0x05	; 5
     d4a:	80 83       	st	Z, r24
}
     d4c:	cf 91       	pop	r28
     d4e:	df 91       	pop	r29
     d50:	08 95       	ret

00000d52 <initRCRx>:

void initRCRx(void){
     d52:	df 93       	push	r29
     d54:	cf 93       	push	r28
     d56:	cd b7       	in	r28, 0x3d	; 61
     d58:	de b7       	in	r29, 0x3e	; 62
	ctrlData = defaultCtrlData;
     d5a:	83 e4       	ldi	r24, 0x43	; 67
     d5c:	93 e0       	ldi	r25, 0x03	; 3
     d5e:	90 93 48 03 	sts	0x0348, r25
     d62:	80 93 47 03 	sts	0x0347, r24
	phase = SerchHead;
     d66:	10 92 6b 03 	sts	0x036B, r1
	initIntervalTimer();
     d6a:	0e 94 96 06 	call	0xd2c	; 0xd2c <initIntervalTimer>
}
     d6e:	cf 91       	pop	r28
     d70:	df 91       	pop	r29
     d72:	08 95       	ret

00000d74 <ToggleRCRxBuffer>:

union controller_data *ToggleRCRxBuffer(void)
{
     d74:	df 93       	push	r29
     d76:	cf 93       	push	r28
     d78:	cd b7       	in	r28, 0x3d	; 61
     d7a:	de b7       	in	r29, 0x3e	; 62
	return (union controller_data *)ctrlData;
     d7c:	80 91 47 03 	lds	r24, 0x0347
     d80:	90 91 48 03 	lds	r25, 0x0348
}
     d84:	cf 91       	pop	r28
     d86:	df 91       	pop	r29
     d88:	08 95       	ret

00000d8a <__vector_20>:

ISR(USART0_RX_vect)
{
     d8a:	1f 92       	push	r1
     d8c:	0f 92       	push	r0
     d8e:	0f b6       	in	r0, 0x3f	; 63
     d90:	0f 92       	push	r0
     d92:	00 90 5b 00 	lds	r0, 0x005B
     d96:	0f 92       	push	r0
     d98:	11 24       	eor	r1, r1
     d9a:	2f 93       	push	r18
     d9c:	3f 93       	push	r19
     d9e:	4f 93       	push	r20
     da0:	5f 93       	push	r21
     da2:	6f 93       	push	r22
     da4:	7f 93       	push	r23
     da6:	8f 93       	push	r24
     da8:	9f 93       	push	r25
     daa:	af 93       	push	r26
     dac:	bf 93       	push	r27
     dae:	ef 93       	push	r30
     db0:	ff 93       	push	r31
     db2:	df 93       	push	r29
     db4:	cf 93       	push	r28
     db6:	0f 92       	push	r0
     db8:	cd b7       	in	r28, 0x3d	; 61
     dba:	de b7       	in	r29, 0x3e	; 62
	val = UDR0;
     dbc:	e6 ec       	ldi	r30, 0xC6	; 198
     dbe:	f0 e0       	ldi	r31, 0x00	; 0
     dc0:	80 81       	ld	r24, Z
     dc2:	80 93 80 03 	sts	0x0380, r24

	if ( phase == AnalysisPacket ) {
     dc6:	80 91 6b 03 	lds	r24, 0x036B
     dca:	81 30       	cpi	r24, 0x01	; 1
     dcc:	09 f0       	breq	.+2      	; 0xdd0 <__vector_20+0x46>
     dce:	76 c0       	rjmp	.+236    	; 0xebc <__vector_20+0x132>
		packet[cnt] = val;
     dd0:	80 91 6a 03 	lds	r24, 0x036A
     dd4:	88 2f       	mov	r24, r24
     dd6:	90 e0       	ldi	r25, 0x00	; 0
     dd8:	20 91 80 03 	lds	r18, 0x0380
     ddc:	fc 01       	movw	r30, r24
     dde:	ec 58       	subi	r30, 0x8C	; 140
     de0:	fc 4f       	sbci	r31, 0xFC	; 252
     de2:	20 83       	st	Z, r18
		if ( cnt < CHECK_STR_LENGTH-1 ) {
     de4:	80 91 6a 03 	lds	r24, 0x036A
     de8:	82 30       	cpi	r24, 0x02	; 2
     dea:	a0 f4       	brcc	.+40     	; 0xe14 <__vector_20+0x8a>
			if ( val != check[cnt] ) {
     dec:	80 91 6a 03 	lds	r24, 0x036A
     df0:	88 2f       	mov	r24, r24
     df2:	90 e0       	ldi	r25, 0x00	; 0
     df4:	fc 01       	movw	r30, r24
     df6:	e1 5c       	subi	r30, 0xC1	; 193
     df8:	fc 4f       	sbci	r31, 0xFC	; 252
     dfa:	90 81       	ld	r25, Z
     dfc:	80 91 80 03 	lds	r24, 0x0380
     e00:	98 17       	cp	r25, r24
     e02:	09 f4       	brne	.+2      	; 0xe06 <__vector_20+0x7c>
     e04:	55 c0       	rjmp	.+170    	; 0xeb0 <__vector_20+0x126>
				phase = SerchHead;
     e06:	10 92 6b 03 	sts	0x036B, r1
				LED(0,false);
     e0a:	80 e0       	ldi	r24, 0x00	; 0
     e0c:	60 e0       	ldi	r22, 0x00	; 0
     e0e:	0e 94 1a 06 	call	0xc34	; 0xc34 <LED>
     e12:	4e c0       	rjmp	.+156    	; 0xeb0 <__vector_20+0x126>
			}
		} else if ( cnt==8 ) {
     e14:	80 91 6a 03 	lds	r24, 0x036A
     e18:	88 30       	cpi	r24, 0x08	; 8
     e1a:	09 f0       	breq	.+2      	; 0xe1e <__vector_20+0x94>
     e1c:	49 c0       	rjmp	.+146    	; 0xeb0 <__vector_20+0x126>
			p = ctrlDatas[ctrlDataSelecter].buf;
     e1e:	80 91 69 03 	lds	r24, 0x0369
     e22:	88 2f       	mov	r24, r24
     e24:	90 e0       	ldi	r25, 0x00	; 0
     e26:	88 0f       	add	r24, r24
     e28:	99 1f       	adc	r25, r25
     e2a:	88 0f       	add	r24, r24
     e2c:	99 1f       	adc	r25, r25
     e2e:	84 59       	subi	r24, 0x94	; 148
     e30:	9c 4f       	sbci	r25, 0xFC	; 252
     e32:	90 93 82 03 	sts	0x0382, r25
     e36:	80 93 81 03 	sts	0x0381, r24
			p[0] = packet[5];
     e3a:	e0 91 81 03 	lds	r30, 0x0381
     e3e:	f0 91 82 03 	lds	r31, 0x0382
     e42:	80 91 79 03 	lds	r24, 0x0379
     e46:	80 83       	st	Z, r24
			p[1] = packet[6];
     e48:	80 91 81 03 	lds	r24, 0x0381
     e4c:	90 91 82 03 	lds	r25, 0x0382
     e50:	fc 01       	movw	r30, r24
     e52:	31 96       	adiw	r30, 0x01	; 1
     e54:	80 91 7a 03 	lds	r24, 0x037A
     e58:	80 83       	st	Z, r24
			p[2] = packet[7];
     e5a:	80 91 81 03 	lds	r24, 0x0381
     e5e:	90 91 82 03 	lds	r25, 0x0382
     e62:	fc 01       	movw	r30, r24
     e64:	32 96       	adiw	r30, 0x02	; 2
     e66:	80 91 7b 03 	lds	r24, 0x037B
     e6a:	80 83       	st	Z, r24
			p[3] = packet[8];
     e6c:	80 91 81 03 	lds	r24, 0x0381
     e70:	90 91 82 03 	lds	r25, 0x0382
     e74:	fc 01       	movw	r30, r24
     e76:	33 96       	adiw	r30, 0x03	; 3
     e78:	80 91 7c 03 	lds	r24, 0x037C
     e7c:	80 83       	st	Z, r24
			ctrlData = p;
     e7e:	80 91 81 03 	lds	r24, 0x0381
     e82:	90 91 82 03 	lds	r25, 0x0382
     e86:	90 93 48 03 	sts	0x0348, r25
     e8a:	80 93 47 03 	sts	0x0347, r24
			ctrlDataSelecter = ( ctrlDataSelecter == CtrlDataSelect0 )? CtrlDataSelect1:CtrlDataSelect0;
     e8e:	80 91 69 03 	lds	r24, 0x0369
     e92:	19 82       	std	Y+1, r1	; 0x01
     e94:	88 23       	and	r24, r24
     e96:	11 f4       	brne	.+4      	; 0xe9c <__vector_20+0x112>
     e98:	81 e0       	ldi	r24, 0x01	; 1
     e9a:	89 83       	std	Y+1, r24	; 0x01
     e9c:	89 81       	ldd	r24, Y+1	; 0x01
     e9e:	80 93 69 03 	sts	0x0369, r24
			phase = SerchHead;
     ea2:	10 92 6b 03 	sts	0x036B, r1
			LED(0,true);
     ea6:	80 e0       	ldi	r24, 0x00	; 0
     ea8:	61 e0       	ldi	r22, 0x01	; 1
     eaa:	0e 94 1a 06 	call	0xc34	; 0xc34 <LED>
			wdt_reset();
     eae:	a8 95       	wdr
		}
		cnt++;
     eb0:	80 91 6a 03 	lds	r24, 0x036A
     eb4:	8f 5f       	subi	r24, 0xFF	; 255
     eb6:	80 93 6a 03 	sts	0x036A, r24
     eba:	09 c0       	rjmp	.+18     	; 0xece <__vector_20+0x144>
	} else {
		if ( val == '*' ) {
     ebc:	80 91 80 03 	lds	r24, 0x0380
     ec0:	8a 32       	cpi	r24, 0x2A	; 42
     ec2:	29 f4       	brne	.+10     	; 0xece <__vector_20+0x144>
			cnt = 0;
     ec4:	10 92 6a 03 	sts	0x036A, r1
			phase = AnalysisPacket;
     ec8:	81 e0       	ldi	r24, 0x01	; 1
     eca:	80 93 6b 03 	sts	0x036B, r24
		}
	}

}
     ece:	0f 90       	pop	r0
     ed0:	cf 91       	pop	r28
     ed2:	df 91       	pop	r29
     ed4:	ff 91       	pop	r31
     ed6:	ef 91       	pop	r30
     ed8:	bf 91       	pop	r27
     eda:	af 91       	pop	r26
     edc:	9f 91       	pop	r25
     ede:	8f 91       	pop	r24
     ee0:	7f 91       	pop	r23
     ee2:	6f 91       	pop	r22
     ee4:	5f 91       	pop	r21
     ee6:	4f 91       	pop	r20
     ee8:	3f 91       	pop	r19
     eea:	2f 91       	pop	r18
     eec:	0f 90       	pop	r0
     eee:	00 92 5b 00 	sts	0x005B, r0
     ef2:	0f 90       	pop	r0
     ef4:	0f be       	out	0x3f, r0	; 63
     ef6:	0f 90       	pop	r0
     ef8:	1f 90       	pop	r1
     efa:	18 95       	reti

00000efc <__vector_8>:

ISR (WDT_vect)
{
     efc:	1f 92       	push	r1
     efe:	0f 92       	push	r0
     f00:	0f b6       	in	r0, 0x3f	; 63
     f02:	0f 92       	push	r0
     f04:	11 24       	eor	r1, r1
     f06:	8f 93       	push	r24
     f08:	9f 93       	push	r25
     f0a:	df 93       	push	r29
     f0c:	cf 93       	push	r28
     f0e:	cd b7       	in	r28, 0x3d	; 61
     f10:	de b7       	in	r29, 0x3e	; 62
	ctrlData = defaultCtrlData;
     f12:	83 e4       	ldi	r24, 0x43	; 67
     f14:	93 e0       	ldi	r25, 0x03	; 3
     f16:	90 93 48 03 	sts	0x0348, r25
     f1a:	80 93 47 03 	sts	0x0347, r24
}
     f1e:	cf 91       	pop	r28
     f20:	df 91       	pop	r29
     f22:	9f 91       	pop	r25
     f24:	8f 91       	pop	r24
     f26:	0f 90       	pop	r0
     f28:	0f be       	out	0x3f, r0	; 63
     f2a:	0f 90       	pop	r0
     f2c:	1f 90       	pop	r1
     f2e:	18 95       	reti

00000f30 <initUART>:
 * @param[in] mode {UARTMode} UARTのモード設定値（ストップビット，パリティビット）
 * @param[in] act {UARTAction} UARTの動作の設定値（送信，受信，割り込みなど）
 * @param[in] speed {uint32} UARTの通信速度
 */
void initUART(enum UARTNumber no, enum UARTMode mode, enum UARTAction act,uint16_t baud)
{	
     f30:	df 93       	push	r29
     f32:	cf 93       	push	r28
     f34:	cd b7       	in	r28, 0x3d	; 61
     f36:	de b7       	in	r29, 0x3e	; 62
     f38:	27 97       	sbiw	r28, 0x07	; 7
     f3a:	0f b6       	in	r0, 0x3f	; 63
     f3c:	f8 94       	cli
     f3e:	de bf       	out	0x3e, r29	; 62
     f40:	0f be       	out	0x3f, r0	; 63
     f42:	cd bf       	out	0x3d, r28	; 61
     f44:	89 83       	std	Y+1, r24	; 0x01
     f46:	6a 83       	std	Y+2, r22	; 0x02
     f48:	4b 83       	std	Y+3, r20	; 0x03
     f4a:	3d 83       	std	Y+5, r19	; 0x05
     f4c:	2c 83       	std	Y+4, r18	; 0x04
	switch ( no ){
     f4e:	89 81       	ldd	r24, Y+1	; 0x01
     f50:	28 2f       	mov	r18, r24
     f52:	30 e0       	ldi	r19, 0x00	; 0
     f54:	3f 83       	std	Y+7, r19	; 0x07
     f56:	2e 83       	std	Y+6, r18	; 0x06
     f58:	8e 81       	ldd	r24, Y+6	; 0x06
     f5a:	9f 81       	ldd	r25, Y+7	; 0x07
     f5c:	00 97       	sbiw	r24, 0x00	; 0
     f5e:	31 f0       	breq	.+12     	; 0xf6c <initUART+0x3c>
     f60:	2e 81       	ldd	r18, Y+6	; 0x06
     f62:	3f 81       	ldd	r19, Y+7	; 0x07
     f64:	21 30       	cpi	r18, 0x01	; 1
     f66:	31 05       	cpc	r19, r1
     f68:	b1 f0       	breq	.+44     	; 0xf96 <initUART+0x66>
     f6a:	29 c0       	rjmp	.+82     	; 0xfbe <initUART+0x8e>
		case UART0:
			UCSR0C = mode | OneFrameIs8Bit;
     f6c:	e2 ec       	ldi	r30, 0xC2	; 194
     f6e:	f0 e0       	ldi	r31, 0x00	; 0
     f70:	8a 81       	ldd	r24, Y+2	; 0x02
     f72:	86 60       	ori	r24, 0x06	; 6
     f74:	80 83       	st	Z, r24
			UCSR0B = act;
     f76:	e1 ec       	ldi	r30, 0xC1	; 193
     f78:	f0 e0       	ldi	r31, 0x00	; 0
     f7a:	8b 81       	ldd	r24, Y+3	; 0x03
     f7c:	80 83       	st	Z, r24
			UBRR0H = (uint8_t)(baud>>8);
     f7e:	e5 ec       	ldi	r30, 0xC5	; 197
     f80:	f0 e0       	ldi	r31, 0x00	; 0
     f82:	8c 81       	ldd	r24, Y+4	; 0x04
     f84:	9d 81       	ldd	r25, Y+5	; 0x05
     f86:	89 2f       	mov	r24, r25
     f88:	99 27       	eor	r25, r25
     f8a:	80 83       	st	Z, r24
	 		UBRR0L = (uint8_t)baud;
     f8c:	e4 ec       	ldi	r30, 0xC4	; 196
     f8e:	f0 e0       	ldi	r31, 0x00	; 0
     f90:	8c 81       	ldd	r24, Y+4	; 0x04
     f92:	80 83       	st	Z, r24
     f94:	14 c0       	rjmp	.+40     	; 0xfbe <initUART+0x8e>
			break;
		case UART1:
			UCSR1C = mode | OneFrameIs8Bit;
     f96:	ea ec       	ldi	r30, 0xCA	; 202
     f98:	f0 e0       	ldi	r31, 0x00	; 0
     f9a:	8a 81       	ldd	r24, Y+2	; 0x02
     f9c:	86 60       	ori	r24, 0x06	; 6
     f9e:	80 83       	st	Z, r24
			UCSR1B = act;
     fa0:	e9 ec       	ldi	r30, 0xC9	; 201
     fa2:	f0 e0       	ldi	r31, 0x00	; 0
     fa4:	8b 81       	ldd	r24, Y+3	; 0x03
     fa6:	80 83       	st	Z, r24
			UBRR1H = (uint8_t)(baud>>8);
     fa8:	ed ec       	ldi	r30, 0xCD	; 205
     faa:	f0 e0       	ldi	r31, 0x00	; 0
     fac:	8c 81       	ldd	r24, Y+4	; 0x04
     fae:	9d 81       	ldd	r25, Y+5	; 0x05
     fb0:	89 2f       	mov	r24, r25
     fb2:	99 27       	eor	r25, r25
     fb4:	80 83       	st	Z, r24
	 		UBRR1L = (uint8_t)baud;
     fb6:	ec ec       	ldi	r30, 0xCC	; 204
     fb8:	f0 e0       	ldi	r31, 0x00	; 0
     fba:	8c 81       	ldd	r24, Y+4	; 0x04
     fbc:	80 83       	st	Z, r24
			break;
		default:
			break;
	}
}
     fbe:	27 96       	adiw	r28, 0x07	; 7
     fc0:	0f b6       	in	r0, 0x3f	; 63
     fc2:	f8 94       	cli
     fc4:	de bf       	out	0x3e, r29	; 62
     fc6:	0f be       	out	0x3f, r0	; 63
     fc8:	cd bf       	out	0x3d, r28	; 61
     fca:	cf 91       	pop	r28
     fcc:	df 91       	pop	r29
     fce:	08 95       	ret

00000fd0 <uart0Put>:
/**
 * 1Byte送信する
 * @param[in] value {uint8_t} 送信するデータ
 */
void uart0Put(uint8_t value)
{
     fd0:	df 93       	push	r29
     fd2:	cf 93       	push	r28
     fd4:	0f 92       	push	r0
     fd6:	cd b7       	in	r28, 0x3d	; 61
     fd8:	de b7       	in	r29, 0x3e	; 62
     fda:	89 83       	std	Y+1, r24	; 0x01
	while ( UART0_TRANSMITTING );
     fdc:	e0 ec       	ldi	r30, 0xC0	; 192
     fde:	f0 e0       	ldi	r31, 0x00	; 0
     fe0:	80 81       	ld	r24, Z
     fe2:	88 2f       	mov	r24, r24
     fe4:	90 e0       	ldi	r25, 0x00	; 0
     fe6:	80 72       	andi	r24, 0x20	; 32
     fe8:	90 70       	andi	r25, 0x00	; 0
     fea:	00 97       	sbiw	r24, 0x00	; 0
     fec:	b9 f3       	breq	.-18     	; 0xfdc <uart0Put+0xc>
	UDR0 = value;
     fee:	e6 ec       	ldi	r30, 0xC6	; 198
     ff0:	f0 e0       	ldi	r31, 0x00	; 0
     ff2:	89 81       	ldd	r24, Y+1	; 0x01
     ff4:	80 83       	st	Z, r24
}
     ff6:	0f 90       	pop	r0
     ff8:	cf 91       	pop	r28
     ffa:	df 91       	pop	r29
     ffc:	08 95       	ret

00000ffe <uart1Put>:
/**
 * 1Byte送信する
 * @param[in] value {uint8_t} 送信するデータ
 */
void uart1Put(uint8_t value)
{
     ffe:	df 93       	push	r29
    1000:	cf 93       	push	r28
    1002:	0f 92       	push	r0
    1004:	cd b7       	in	r28, 0x3d	; 61
    1006:	de b7       	in	r29, 0x3e	; 62
    1008:	89 83       	std	Y+1, r24	; 0x01
	while ( UART1_TRANSMITTING );
    100a:	e8 ec       	ldi	r30, 0xC8	; 200
    100c:	f0 e0       	ldi	r31, 0x00	; 0
    100e:	80 81       	ld	r24, Z
    1010:	88 2f       	mov	r24, r24
    1012:	90 e0       	ldi	r25, 0x00	; 0
    1014:	80 72       	andi	r24, 0x20	; 32
    1016:	90 70       	andi	r25, 0x00	; 0
    1018:	00 97       	sbiw	r24, 0x00	; 0
    101a:	b9 f3       	breq	.-18     	; 0x100a <uart1Put+0xc>
	UDR1 = value;
    101c:	ee ec       	ldi	r30, 0xCE	; 206
    101e:	f0 e0       	ldi	r31, 0x00	; 0
    1020:	89 81       	ldd	r24, Y+1	; 0x01
    1022:	80 83       	st	Z, r24
} 
    1024:	0f 90       	pop	r0
    1026:	cf 91       	pop	r28
    1028:	df 91       	pop	r29
    102a:	08 95       	ret

0000102c <uart0Get>:
/**
 * 1Byte受信する
 * @return {uint8_t} 受信したデータ
 */
uint8_t uart0Get(void)
{
    102c:	df 93       	push	r29
    102e:	cf 93       	push	r28
    1030:	cd b7       	in	r28, 0x3d	; 61
    1032:	de b7       	in	r29, 0x3e	; 62
	while ( UART0_RECEIVING );
    1034:	e0 ec       	ldi	r30, 0xC0	; 192
    1036:	f0 e0       	ldi	r31, 0x00	; 0
    1038:	80 81       	ld	r24, Z
    103a:	88 23       	and	r24, r24
    103c:	dc f7       	brge	.-10     	; 0x1034 <uart0Get+0x8>
	return UDR0;
    103e:	e6 ec       	ldi	r30, 0xC6	; 198
    1040:	f0 e0       	ldi	r31, 0x00	; 0
    1042:	80 81       	ld	r24, Z
}
    1044:	cf 91       	pop	r28
    1046:	df 91       	pop	r29
    1048:	08 95       	ret

0000104a <uart1Get>:
/**
 * 1Byte受信する
 * @return {uint8_t} 受信したデータ
 */
uint8_t uart1Get(void)
{
    104a:	df 93       	push	r29
    104c:	cf 93       	push	r28
    104e:	cd b7       	in	r28, 0x3d	; 61
    1050:	de b7       	in	r29, 0x3e	; 62
	while ( UART1_RECEIVING );
    1052:	e8 ec       	ldi	r30, 0xC8	; 200
    1054:	f0 e0       	ldi	r31, 0x00	; 0
    1056:	80 81       	ld	r24, Z
    1058:	88 23       	and	r24, r24
    105a:	dc f7       	brge	.-10     	; 0x1052 <uart1Get+0x8>
	return UDR1;
    105c:	ee ec       	ldi	r30, 0xCE	; 206
    105e:	f0 e0       	ldi	r31, 0x00	; 0
    1060:	80 81       	ld	r24, Z
}
    1062:	cf 91       	pop	r28
    1064:	df 91       	pop	r29
    1066:	08 95       	ret

00001068 <uart0Puts>:
/**
 * 複数Byte送信する
 * @param[in] values {char*} 送るデータ群
 */
void uart0Puts(char* values)
{
    1068:	df 93       	push	r29
    106a:	cf 93       	push	r28
    106c:	00 d0       	rcall	.+0      	; 0x106e <uart0Puts+0x6>
    106e:	cd b7       	in	r28, 0x3d	; 61
    1070:	de b7       	in	r29, 0x3e	; 62
    1072:	9a 83       	std	Y+2, r25	; 0x02
    1074:	89 83       	std	Y+1, r24	; 0x01
    1076:	0b c0       	rjmp	.+22     	; 0x108e <uart0Puts+0x26>
	while ( *values != '\0' ) {
		uart0Put(*values++);
    1078:	e9 81       	ldd	r30, Y+1	; 0x01
    107a:	fa 81       	ldd	r31, Y+2	; 0x02
    107c:	20 81       	ld	r18, Z
    107e:	89 81       	ldd	r24, Y+1	; 0x01
    1080:	9a 81       	ldd	r25, Y+2	; 0x02
    1082:	01 96       	adiw	r24, 0x01	; 1
    1084:	9a 83       	std	Y+2, r25	; 0x02
    1086:	89 83       	std	Y+1, r24	; 0x01
    1088:	82 2f       	mov	r24, r18
    108a:	0e 94 e8 07 	call	0xfd0	; 0xfd0 <uart0Put>
 * 複数Byte送信する
 * @param[in] values {char*} 送るデータ群
 */
void uart0Puts(char* values)
{
	while ( *values != '\0' ) {
    108e:	e9 81       	ldd	r30, Y+1	; 0x01
    1090:	fa 81       	ldd	r31, Y+2	; 0x02
    1092:	80 81       	ld	r24, Z
    1094:	88 23       	and	r24, r24
    1096:	81 f7       	brne	.-32     	; 0x1078 <uart0Puts+0x10>
		uart0Put(*values++);
	}
}
    1098:	0f 90       	pop	r0
    109a:	0f 90       	pop	r0
    109c:	cf 91       	pop	r28
    109e:	df 91       	pop	r29
    10a0:	08 95       	ret

000010a2 <uart1Puts>:
/**
 * 複数Byte送信する
 * @param[in] values {char*} 送るデータ群
 */
void uart1Puts(char* values)
{
    10a2:	df 93       	push	r29
    10a4:	cf 93       	push	r28
    10a6:	00 d0       	rcall	.+0      	; 0x10a8 <uart1Puts+0x6>
    10a8:	cd b7       	in	r28, 0x3d	; 61
    10aa:	de b7       	in	r29, 0x3e	; 62
    10ac:	9a 83       	std	Y+2, r25	; 0x02
    10ae:	89 83       	std	Y+1, r24	; 0x01
    10b0:	0b c0       	rjmp	.+22     	; 0x10c8 <uart1Puts+0x26>
	while ( *values != '\0' ) {
		uart1Put(*values++);
    10b2:	e9 81       	ldd	r30, Y+1	; 0x01
    10b4:	fa 81       	ldd	r31, Y+2	; 0x02
    10b6:	20 81       	ld	r18, Z
    10b8:	89 81       	ldd	r24, Y+1	; 0x01
    10ba:	9a 81       	ldd	r25, Y+2	; 0x02
    10bc:	01 96       	adiw	r24, 0x01	; 1
    10be:	9a 83       	std	Y+2, r25	; 0x02
    10c0:	89 83       	std	Y+1, r24	; 0x01
    10c2:	82 2f       	mov	r24, r18
    10c4:	0e 94 ff 07 	call	0xffe	; 0xffe <uart1Put>
 * 複数Byte送信する
 * @param[in] values {char*} 送るデータ群
 */
void uart1Puts(char* values)
{
	while ( *values != '\0' ) {
    10c8:	e9 81       	ldd	r30, Y+1	; 0x01
    10ca:	fa 81       	ldd	r31, Y+2	; 0x02
    10cc:	80 81       	ld	r24, Z
    10ce:	88 23       	and	r24, r24
    10d0:	81 f7       	brne	.-32     	; 0x10b2 <uart1Puts+0x10>
		uart1Put(*values++);
	}
}
    10d2:	0f 90       	pop	r0
    10d4:	0f 90       	pop	r0
    10d6:	cf 91       	pop	r28
    10d8:	df 91       	pop	r29
    10da:	08 95       	ret

000010dc <uartSetBuffer>:

/**
 * リングバッファの参照先を設定する
 */
void uartSetBuffer(enum UARTNumber no, uint8_t *buffer, uint8_t size)
{
    10dc:	df 93       	push	r29
    10de:	cf 93       	push	r28
    10e0:	00 d0       	rcall	.+0      	; 0x10e2 <uartSetBuffer+0x6>
    10e2:	00 d0       	rcall	.+0      	; 0x10e4 <uartSetBuffer+0x8>
    10e4:	cd b7       	in	r28, 0x3d	; 61
    10e6:	de b7       	in	r29, 0x3e	; 62
    10e8:	89 83       	std	Y+1, r24	; 0x01
    10ea:	7b 83       	std	Y+3, r23	; 0x03
    10ec:	6a 83       	std	Y+2, r22	; 0x02
    10ee:	4c 83       	std	Y+4, r20	; 0x04
	ringBuffers[no].buffer = buffer;
    10f0:	89 81       	ldd	r24, Y+1	; 0x01
    10f2:	28 2f       	mov	r18, r24
    10f4:	30 e0       	ldi	r19, 0x00	; 0
    10f6:	c9 01       	movw	r24, r18
    10f8:	88 0f       	add	r24, r24
    10fa:	99 1f       	adc	r25, r25
    10fc:	82 0f       	add	r24, r18
    10fe:	93 1f       	adc	r25, r19
    1100:	01 96       	adiw	r24, 0x01	; 1
    1102:	88 0f       	add	r24, r24
    1104:	99 1f       	adc	r25, r25
    1106:	fc 01       	movw	r30, r24
    1108:	e7 5b       	subi	r30, 0xB7	; 183
    110a:	fc 4f       	sbci	r31, 0xFC	; 252
    110c:	8a 81       	ldd	r24, Y+2	; 0x02
    110e:	9b 81       	ldd	r25, Y+3	; 0x03
    1110:	91 83       	std	Z+1, r25	; 0x01
    1112:	80 83       	st	Z, r24
	ringBuffers[no].size = size;
    1114:	89 81       	ldd	r24, Y+1	; 0x01
    1116:	28 2f       	mov	r18, r24
    1118:	30 e0       	ldi	r19, 0x00	; 0
    111a:	c9 01       	movw	r24, r18
    111c:	88 0f       	add	r24, r24
    111e:	99 1f       	adc	r25, r25
    1120:	82 0f       	add	r24, r18
    1122:	93 1f       	adc	r25, r19
    1124:	88 0f       	add	r24, r24
    1126:	99 1f       	adc	r25, r25
    1128:	fc 01       	movw	r30, r24
    112a:	e3 5b       	subi	r30, 0xB3	; 179
    112c:	fc 4f       	sbci	r31, 0xFC	; 252
    112e:	8c 81       	ldd	r24, Y+4	; 0x04
    1130:	80 83       	st	Z, r24
}
    1132:	0f 90       	pop	r0
    1134:	0f 90       	pop	r0
    1136:	0f 90       	pop	r0
    1138:	0f 90       	pop	r0
    113a:	cf 91       	pop	r28
    113c:	df 91       	pop	r29
    113e:	08 95       	ret

00001140 <uart0PutsBuffer>:
/**
 * 複数Byte送信する（非同期）
 * @param[in] values {char*} 送るデータ群
 */
void uart0PutsBuffer(char* values)
{
    1140:	df 93       	push	r29
    1142:	cf 93       	push	r28
    1144:	00 d0       	rcall	.+0      	; 0x1146 <uart0PutsBuffer+0x6>
    1146:	cd b7       	in	r28, 0x3d	; 61
    1148:	de b7       	in	r29, 0x3e	; 62
    114a:	9a 83       	std	Y+2, r25	; 0x02
    114c:	89 83       	std	Y+1, r24	; 0x01
	pRing = &ringBuffers[0];
    114e:	89 e4       	ldi	r24, 0x49	; 73
    1150:	93 e0       	ldi	r25, 0x03	; 3
    1152:	90 93 84 03 	sts	0x0384, r25
    1156:	80 93 83 03 	sts	0x0383, r24
    115a:	49 c0       	rjmp	.+146    	; 0x11ee <uart0PutsBuffer+0xae>
	while ( *values != '\0' ) {
		if ( !pRing->empty && pRing->rp == pRing->wp ) return;
    115c:	e0 91 83 03 	lds	r30, 0x0383
    1160:	f0 91 84 03 	lds	r31, 0x0384
    1164:	95 81       	ldd	r25, Z+5	; 0x05
    1166:	81 e0       	ldi	r24, 0x01	; 1
    1168:	89 27       	eor	r24, r25
    116a:	88 23       	and	r24, r24
    116c:	61 f0       	breq	.+24     	; 0x1186 <uart0PutsBuffer+0x46>
    116e:	e0 91 83 03 	lds	r30, 0x0383
    1172:	f0 91 84 03 	lds	r31, 0x0384
    1176:	90 81       	ld	r25, Z
    1178:	e0 91 83 03 	lds	r30, 0x0383
    117c:	f0 91 84 03 	lds	r31, 0x0384
    1180:	81 81       	ldd	r24, Z+1	; 0x01
    1182:	98 17       	cp	r25, r24
    1184:	d1 f1       	breq	.+116    	; 0x11fa <uart0PutsBuffer+0xba>
		pRing->buffer[pRing->wp++] = *values++;
    1186:	e0 91 83 03 	lds	r30, 0x0383
    118a:	f0 91 84 03 	lds	r31, 0x0384
    118e:	22 81       	ldd	r18, Z+2	; 0x02
    1190:	33 81       	ldd	r19, Z+3	; 0x03
    1192:	40 91 83 03 	lds	r20, 0x0383
    1196:	50 91 84 03 	lds	r21, 0x0384
    119a:	fa 01       	movw	r30, r20
    119c:	61 81       	ldd	r22, Z+1	; 0x01
    119e:	86 2f       	mov	r24, r22
    11a0:	90 e0       	ldi	r25, 0x00	; 0
    11a2:	d9 01       	movw	r26, r18
    11a4:	a8 0f       	add	r26, r24
    11a6:	b9 1f       	adc	r27, r25
    11a8:	e9 81       	ldd	r30, Y+1	; 0x01
    11aa:	fa 81       	ldd	r31, Y+2	; 0x02
    11ac:	80 81       	ld	r24, Z
    11ae:	8c 93       	st	X, r24
    11b0:	86 2f       	mov	r24, r22
    11b2:	8f 5f       	subi	r24, 0xFF	; 255
    11b4:	fa 01       	movw	r30, r20
    11b6:	81 83       	std	Z+1, r24	; 0x01
    11b8:	89 81       	ldd	r24, Y+1	; 0x01
    11ba:	9a 81       	ldd	r25, Y+2	; 0x02
    11bc:	01 96       	adiw	r24, 0x01	; 1
    11be:	9a 83       	std	Y+2, r25	; 0x02
    11c0:	89 83       	std	Y+1, r24	; 0x01
		if ( pRing->wp == pRing->size ) pRing->wp = 0;
    11c2:	e0 91 83 03 	lds	r30, 0x0383
    11c6:	f0 91 84 03 	lds	r31, 0x0384
    11ca:	91 81       	ldd	r25, Z+1	; 0x01
    11cc:	e0 91 83 03 	lds	r30, 0x0383
    11d0:	f0 91 84 03 	lds	r31, 0x0384
    11d4:	84 81       	ldd	r24, Z+4	; 0x04
    11d6:	98 17       	cp	r25, r24
    11d8:	29 f4       	brne	.+10     	; 0x11e4 <uart0PutsBuffer+0xa4>
    11da:	e0 91 83 03 	lds	r30, 0x0383
    11de:	f0 91 84 03 	lds	r31, 0x0384
    11e2:	11 82       	std	Z+1, r1	; 0x01
		pRing->empty = false;
    11e4:	e0 91 83 03 	lds	r30, 0x0383
    11e8:	f0 91 84 03 	lds	r31, 0x0384
    11ec:	15 82       	std	Z+5, r1	; 0x05
 * @param[in] values {char*} 送るデータ群
 */
void uart0PutsBuffer(char* values)
{
	pRing = &ringBuffers[0];
	while ( *values != '\0' ) {
    11ee:	e9 81       	ldd	r30, Y+1	; 0x01
    11f0:	fa 81       	ldd	r31, Y+2	; 0x02
    11f2:	80 81       	ld	r24, Z
    11f4:	88 23       	and	r24, r24
    11f6:	09 f0       	breq	.+2      	; 0x11fa <uart0PutsBuffer+0xba>
    11f8:	b1 cf       	rjmp	.-158    	; 0x115c <uart0PutsBuffer+0x1c>
		if ( !pRing->empty && pRing->rp == pRing->wp ) return;
		pRing->buffer[pRing->wp++] = *values++;
		if ( pRing->wp == pRing->size ) pRing->wp = 0;
		pRing->empty = false;
	}
}
    11fa:	0f 90       	pop	r0
    11fc:	0f 90       	pop	r0
    11fe:	cf 91       	pop	r28
    1200:	df 91       	pop	r29
    1202:	08 95       	ret

00001204 <uart1PutsBuffer>:
/**
 * 複数Byte送信する（非同期）
 * @param[in] values {char*} 送るデータ群
 */
void uart1PutsBuffer(char* values)
{
    1204:	df 93       	push	r29
    1206:	cf 93       	push	r28
    1208:	00 d0       	rcall	.+0      	; 0x120a <uart1PutsBuffer+0x6>
    120a:	cd b7       	in	r28, 0x3d	; 61
    120c:	de b7       	in	r29, 0x3e	; 62
    120e:	9a 83       	std	Y+2, r25	; 0x02
    1210:	89 83       	std	Y+1, r24	; 0x01
	pRing = &ringBuffers[1];
    1212:	8f e4       	ldi	r24, 0x4F	; 79
    1214:	93 e0       	ldi	r25, 0x03	; 3
    1216:	90 93 84 03 	sts	0x0384, r25
    121a:	80 93 83 03 	sts	0x0383, r24
    121e:	49 c0       	rjmp	.+146    	; 0x12b2 <uart1PutsBuffer+0xae>
	while ( *values != '\0' ) {
		if ( !pRing->empty && pRing->rp == pRing->wp ) return;
    1220:	e0 91 83 03 	lds	r30, 0x0383
    1224:	f0 91 84 03 	lds	r31, 0x0384
    1228:	95 81       	ldd	r25, Z+5	; 0x05
    122a:	81 e0       	ldi	r24, 0x01	; 1
    122c:	89 27       	eor	r24, r25
    122e:	88 23       	and	r24, r24
    1230:	61 f0       	breq	.+24     	; 0x124a <uart1PutsBuffer+0x46>
    1232:	e0 91 83 03 	lds	r30, 0x0383
    1236:	f0 91 84 03 	lds	r31, 0x0384
    123a:	90 81       	ld	r25, Z
    123c:	e0 91 83 03 	lds	r30, 0x0383
    1240:	f0 91 84 03 	lds	r31, 0x0384
    1244:	81 81       	ldd	r24, Z+1	; 0x01
    1246:	98 17       	cp	r25, r24
    1248:	d1 f1       	breq	.+116    	; 0x12be <uart1PutsBuffer+0xba>
		pRing->buffer[pRing->wp++] = *values++;
    124a:	e0 91 83 03 	lds	r30, 0x0383
    124e:	f0 91 84 03 	lds	r31, 0x0384
    1252:	22 81       	ldd	r18, Z+2	; 0x02
    1254:	33 81       	ldd	r19, Z+3	; 0x03
    1256:	40 91 83 03 	lds	r20, 0x0383
    125a:	50 91 84 03 	lds	r21, 0x0384
    125e:	fa 01       	movw	r30, r20
    1260:	61 81       	ldd	r22, Z+1	; 0x01
    1262:	86 2f       	mov	r24, r22
    1264:	90 e0       	ldi	r25, 0x00	; 0
    1266:	d9 01       	movw	r26, r18
    1268:	a8 0f       	add	r26, r24
    126a:	b9 1f       	adc	r27, r25
    126c:	e9 81       	ldd	r30, Y+1	; 0x01
    126e:	fa 81       	ldd	r31, Y+2	; 0x02
    1270:	80 81       	ld	r24, Z
    1272:	8c 93       	st	X, r24
    1274:	86 2f       	mov	r24, r22
    1276:	8f 5f       	subi	r24, 0xFF	; 255
    1278:	fa 01       	movw	r30, r20
    127a:	81 83       	std	Z+1, r24	; 0x01
    127c:	89 81       	ldd	r24, Y+1	; 0x01
    127e:	9a 81       	ldd	r25, Y+2	; 0x02
    1280:	01 96       	adiw	r24, 0x01	; 1
    1282:	9a 83       	std	Y+2, r25	; 0x02
    1284:	89 83       	std	Y+1, r24	; 0x01
		if ( pRing->wp == pRing->size ) pRing->wp = 0;
    1286:	e0 91 83 03 	lds	r30, 0x0383
    128a:	f0 91 84 03 	lds	r31, 0x0384
    128e:	91 81       	ldd	r25, Z+1	; 0x01
    1290:	e0 91 83 03 	lds	r30, 0x0383
    1294:	f0 91 84 03 	lds	r31, 0x0384
    1298:	84 81       	ldd	r24, Z+4	; 0x04
    129a:	98 17       	cp	r25, r24
    129c:	29 f4       	brne	.+10     	; 0x12a8 <uart1PutsBuffer+0xa4>
    129e:	e0 91 83 03 	lds	r30, 0x0383
    12a2:	f0 91 84 03 	lds	r31, 0x0384
    12a6:	11 82       	std	Z+1, r1	; 0x01
		pRing->empty = false;
    12a8:	e0 91 83 03 	lds	r30, 0x0383
    12ac:	f0 91 84 03 	lds	r31, 0x0384
    12b0:	15 82       	std	Z+5, r1	; 0x05
 * @param[in] values {char*} 送るデータ群
 */
void uart1PutsBuffer(char* values)
{
	pRing = &ringBuffers[1];
	while ( *values != '\0' ) {
    12b2:	e9 81       	ldd	r30, Y+1	; 0x01
    12b4:	fa 81       	ldd	r31, Y+2	; 0x02
    12b6:	80 81       	ld	r24, Z
    12b8:	88 23       	and	r24, r24
    12ba:	09 f0       	breq	.+2      	; 0x12be <uart1PutsBuffer+0xba>
    12bc:	b1 cf       	rjmp	.-158    	; 0x1220 <uart1PutsBuffer+0x1c>
		if ( !pRing->empty && pRing->rp == pRing->wp ) return;
		pRing->buffer[pRing->wp++] = *values++;
		if ( pRing->wp == pRing->size ) pRing->wp = 0;
		pRing->empty = false;
	}
}
    12be:	0f 90       	pop	r0
    12c0:	0f 90       	pop	r0
    12c2:	cf 91       	pop	r28
    12c4:	df 91       	pop	r29
    12c6:	08 95       	ret

000012c8 <__vector_21>:

/**
 * 送信データレジスタ空き割り込み
 */
ISR (USART0_UDRE_vect)
{
    12c8:	1f 92       	push	r1
    12ca:	0f 92       	push	r0
    12cc:	0f b6       	in	r0, 0x3f	; 63
    12ce:	0f 92       	push	r0
    12d0:	00 90 5b 00 	lds	r0, 0x005B
    12d4:	0f 92       	push	r0
    12d6:	11 24       	eor	r1, r1
    12d8:	2f 93       	push	r18
    12da:	3f 93       	push	r19
    12dc:	4f 93       	push	r20
    12de:	6f 93       	push	r22
    12e0:	7f 93       	push	r23
    12e2:	8f 93       	push	r24
    12e4:	9f 93       	push	r25
    12e6:	af 93       	push	r26
    12e8:	bf 93       	push	r27
    12ea:	ef 93       	push	r30
    12ec:	ff 93       	push	r31
    12ee:	df 93       	push	r29
    12f0:	cf 93       	push	r28
    12f2:	cd b7       	in	r28, 0x3d	; 61
    12f4:	de b7       	in	r29, 0x3e	; 62
	pRing = &ringBuffers[0];
    12f6:	89 e4       	ldi	r24, 0x49	; 73
    12f8:	93 e0       	ldi	r25, 0x03	; 3
    12fa:	90 93 84 03 	sts	0x0384, r25
    12fe:	80 93 83 03 	sts	0x0383, r24
	if ( !pRing->empty ) {
    1302:	e0 91 83 03 	lds	r30, 0x0383
    1306:	f0 91 84 03 	lds	r31, 0x0384
    130a:	95 81       	ldd	r25, Z+5	; 0x05
    130c:	81 e0       	ldi	r24, 0x01	; 1
    130e:	89 27       	eor	r24, r25
    1310:	88 23       	and	r24, r24
    1312:	d9 f1       	breq	.+118    	; 0x138a <__vector_21+0xc2>
		UDR0 = pRing->buffer[pRing->rp++];
    1314:	66 ec       	ldi	r22, 0xC6	; 198
    1316:	70 e0       	ldi	r23, 0x00	; 0
    1318:	e0 91 83 03 	lds	r30, 0x0383
    131c:	f0 91 84 03 	lds	r31, 0x0384
    1320:	22 81       	ldd	r18, Z+2	; 0x02
    1322:	33 81       	ldd	r19, Z+3	; 0x03
    1324:	a0 91 83 03 	lds	r26, 0x0383
    1328:	b0 91 84 03 	lds	r27, 0x0384
    132c:	4c 91       	ld	r20, X
    132e:	84 2f       	mov	r24, r20
    1330:	90 e0       	ldi	r25, 0x00	; 0
    1332:	f9 01       	movw	r30, r18
    1334:	e8 0f       	add	r30, r24
    1336:	f9 1f       	adc	r31, r25
    1338:	80 81       	ld	r24, Z
    133a:	fb 01       	movw	r30, r22
    133c:	80 83       	st	Z, r24
    133e:	84 2f       	mov	r24, r20
    1340:	8f 5f       	subi	r24, 0xFF	; 255
    1342:	8c 93       	st	X, r24
		if ( pRing->rp == pRing->size ) pRing->rp = 0;
    1344:	e0 91 83 03 	lds	r30, 0x0383
    1348:	f0 91 84 03 	lds	r31, 0x0384
    134c:	90 81       	ld	r25, Z
    134e:	e0 91 83 03 	lds	r30, 0x0383
    1352:	f0 91 84 03 	lds	r31, 0x0384
    1356:	84 81       	ldd	r24, Z+4	; 0x04
    1358:	98 17       	cp	r25, r24
    135a:	29 f4       	brne	.+10     	; 0x1366 <__vector_21+0x9e>
    135c:	e0 91 83 03 	lds	r30, 0x0383
    1360:	f0 91 84 03 	lds	r31, 0x0384
    1364:	10 82       	st	Z, r1
		if ( pRing->rp == pRing->wp ) pRing->empty = true;
    1366:	e0 91 83 03 	lds	r30, 0x0383
    136a:	f0 91 84 03 	lds	r31, 0x0384
    136e:	90 81       	ld	r25, Z
    1370:	e0 91 83 03 	lds	r30, 0x0383
    1374:	f0 91 84 03 	lds	r31, 0x0384
    1378:	81 81       	ldd	r24, Z+1	; 0x01
    137a:	98 17       	cp	r25, r24
    137c:	31 f4       	brne	.+12     	; 0x138a <__vector_21+0xc2>
    137e:	e0 91 83 03 	lds	r30, 0x0383
    1382:	f0 91 84 03 	lds	r31, 0x0384
    1386:	81 e0       	ldi	r24, 0x01	; 1
    1388:	85 83       	std	Z+5, r24	; 0x05
	}
}
    138a:	cf 91       	pop	r28
    138c:	df 91       	pop	r29
    138e:	ff 91       	pop	r31
    1390:	ef 91       	pop	r30
    1392:	bf 91       	pop	r27
    1394:	af 91       	pop	r26
    1396:	9f 91       	pop	r25
    1398:	8f 91       	pop	r24
    139a:	7f 91       	pop	r23
    139c:	6f 91       	pop	r22
    139e:	4f 91       	pop	r20
    13a0:	3f 91       	pop	r19
    13a2:	2f 91       	pop	r18
    13a4:	0f 90       	pop	r0
    13a6:	00 92 5b 00 	sts	0x005B, r0
    13aa:	0f 90       	pop	r0
    13ac:	0f be       	out	0x3f, r0	; 63
    13ae:	0f 90       	pop	r0
    13b0:	1f 90       	pop	r1
    13b2:	18 95       	reti

000013b4 <__vector_29>:
/**
 * 送信データレジスタ空き割り込み
 */
ISR (USART1_UDRE_vect)
{
    13b4:	1f 92       	push	r1
    13b6:	0f 92       	push	r0
    13b8:	0f b6       	in	r0, 0x3f	; 63
    13ba:	0f 92       	push	r0
    13bc:	00 90 5b 00 	lds	r0, 0x005B
    13c0:	0f 92       	push	r0
    13c2:	11 24       	eor	r1, r1
    13c4:	2f 93       	push	r18
    13c6:	3f 93       	push	r19
    13c8:	4f 93       	push	r20
    13ca:	6f 93       	push	r22
    13cc:	7f 93       	push	r23
    13ce:	8f 93       	push	r24
    13d0:	9f 93       	push	r25
    13d2:	af 93       	push	r26
    13d4:	bf 93       	push	r27
    13d6:	ef 93       	push	r30
    13d8:	ff 93       	push	r31
    13da:	df 93       	push	r29
    13dc:	cf 93       	push	r28
    13de:	cd b7       	in	r28, 0x3d	; 61
    13e0:	de b7       	in	r29, 0x3e	; 62
	pRing = &ringBuffers[1];
    13e2:	8f e4       	ldi	r24, 0x4F	; 79
    13e4:	93 e0       	ldi	r25, 0x03	; 3
    13e6:	90 93 84 03 	sts	0x0384, r25
    13ea:	80 93 83 03 	sts	0x0383, r24
	if ( !pRing->empty ) {
    13ee:	e0 91 83 03 	lds	r30, 0x0383
    13f2:	f0 91 84 03 	lds	r31, 0x0384
    13f6:	95 81       	ldd	r25, Z+5	; 0x05
    13f8:	81 e0       	ldi	r24, 0x01	; 1
    13fa:	89 27       	eor	r24, r25
    13fc:	88 23       	and	r24, r24
    13fe:	d9 f1       	breq	.+118    	; 0x1476 <__vector_29+0xc2>
		UDR1 = pRing->buffer[pRing->rp++];
    1400:	6e ec       	ldi	r22, 0xCE	; 206
    1402:	70 e0       	ldi	r23, 0x00	; 0
    1404:	e0 91 83 03 	lds	r30, 0x0383
    1408:	f0 91 84 03 	lds	r31, 0x0384
    140c:	22 81       	ldd	r18, Z+2	; 0x02
    140e:	33 81       	ldd	r19, Z+3	; 0x03
    1410:	a0 91 83 03 	lds	r26, 0x0383
    1414:	b0 91 84 03 	lds	r27, 0x0384
    1418:	4c 91       	ld	r20, X
    141a:	84 2f       	mov	r24, r20
    141c:	90 e0       	ldi	r25, 0x00	; 0
    141e:	f9 01       	movw	r30, r18
    1420:	e8 0f       	add	r30, r24
    1422:	f9 1f       	adc	r31, r25
    1424:	80 81       	ld	r24, Z
    1426:	fb 01       	movw	r30, r22
    1428:	80 83       	st	Z, r24
    142a:	84 2f       	mov	r24, r20
    142c:	8f 5f       	subi	r24, 0xFF	; 255
    142e:	8c 93       	st	X, r24
		if ( pRing->rp == pRing->size ) pRing->rp = 0;
    1430:	e0 91 83 03 	lds	r30, 0x0383
    1434:	f0 91 84 03 	lds	r31, 0x0384
    1438:	90 81       	ld	r25, Z
    143a:	e0 91 83 03 	lds	r30, 0x0383
    143e:	f0 91 84 03 	lds	r31, 0x0384
    1442:	84 81       	ldd	r24, Z+4	; 0x04
    1444:	98 17       	cp	r25, r24
    1446:	29 f4       	brne	.+10     	; 0x1452 <__vector_29+0x9e>
    1448:	e0 91 83 03 	lds	r30, 0x0383
    144c:	f0 91 84 03 	lds	r31, 0x0384
    1450:	10 82       	st	Z, r1
		if ( pRing->rp == pRing->wp ) pRing->empty = true;
    1452:	e0 91 83 03 	lds	r30, 0x0383
    1456:	f0 91 84 03 	lds	r31, 0x0384
    145a:	90 81       	ld	r25, Z
    145c:	e0 91 83 03 	lds	r30, 0x0383
    1460:	f0 91 84 03 	lds	r31, 0x0384
    1464:	81 81       	ldd	r24, Z+1	; 0x01
    1466:	98 17       	cp	r25, r24
    1468:	31 f4       	brne	.+12     	; 0x1476 <__vector_29+0xc2>
    146a:	e0 91 83 03 	lds	r30, 0x0383
    146e:	f0 91 84 03 	lds	r31, 0x0384
    1472:	81 e0       	ldi	r24, 0x01	; 1
    1474:	85 83       	std	Z+5, r24	; 0x05
	}
}
    1476:	cf 91       	pop	r28
    1478:	df 91       	pop	r29
    147a:	ff 91       	pop	r31
    147c:	ef 91       	pop	r30
    147e:	bf 91       	pop	r27
    1480:	af 91       	pop	r26
    1482:	9f 91       	pop	r25
    1484:	8f 91       	pop	r24
    1486:	7f 91       	pop	r23
    1488:	6f 91       	pop	r22
    148a:	4f 91       	pop	r20
    148c:	3f 91       	pop	r19
    148e:	2f 91       	pop	r18
    1490:	0f 90       	pop	r0
    1492:	00 92 5b 00 	sts	0x005B, r0
    1496:	0f 90       	pop	r0
    1498:	0f be       	out	0x3f, r0	; 63
    149a:	0f 90       	pop	r0
    149c:	1f 90       	pop	r1
    149e:	18 95       	reti

000014a0 <wait_us>:
#include <avr/io.h>
void wait_us(uint16_t t){
    14a0:	df 93       	push	r29
    14a2:	cf 93       	push	r28
    14a4:	00 d0       	rcall	.+0      	; 0x14a6 <wait_us+0x6>
    14a6:	cd b7       	in	r28, 0x3d	; 61
    14a8:	de b7       	in	r29, 0x3e	; 62
    14aa:	9a 83       	std	Y+2, r25	; 0x02
    14ac:	89 83       	std	Y+1, r24	; 0x01
  static unsigned char lpcnt;
  __asm__ __volatile__("\n"
    14ae:	89 81       	ldd	r24, Y+1	; 0x01
    14b0:	9a 81       	ldd	r25, Y+2	; 0x02

000014b2 <CPU_wait_entry10>:
    14b2:	24 e0       	ldi	r18, 0x04	; 4

000014b4 <CPU_wait_lp10>:
    14b4:	00 00       	nop
    14b6:	2a 95       	dec	r18
    14b8:	e9 f7       	brne	.-6      	; 0x14b4 <CPU_wait_lp10>
    14ba:	01 97       	sbiw	r24, 0x01	; 1
    14bc:	d1 f7       	brne	.-12     	; 0x14b2 <CPU_wait_entry10>
    14be:	20 93 85 03 	sts	0x0385, r18
    "sbiw %1,1\n\t"
    "brne CPU_wait_entry%=\n\t"
    :"=&a"(lpcnt)
    :"w"(t)
  );
}
    14c2:	0f 90       	pop	r0
    14c4:	0f 90       	pop	r0
    14c6:	cf 91       	pop	r28
    14c8:	df 91       	pop	r29
    14ca:	08 95       	ret

000014cc <wait_ms>:
void wait_ms(uint16_t t){
    14cc:	df 93       	push	r29
    14ce:	cf 93       	push	r28
    14d0:	00 d0       	rcall	.+0      	; 0x14d2 <wait_ms+0x6>
    14d2:	0f 92       	push	r0
    14d4:	cd b7       	in	r28, 0x3d	; 61
    14d6:	de b7       	in	r29, 0x3e	; 62
    14d8:	9a 83       	std	Y+2, r25	; 0x02
    14da:	89 83       	std	Y+1, r24	; 0x01
    14dc:	04 c0       	rjmp	.+8      	; 0x14e6 <wait_ms+0x1a>
	while(t--) wait_us(1000);
    14de:	88 ee       	ldi	r24, 0xE8	; 232
    14e0:	93 e0       	ldi	r25, 0x03	; 3
    14e2:	0e 94 50 0a 	call	0x14a0	; 0x14a0 <wait_us>
    14e6:	1b 82       	std	Y+3, r1	; 0x03
    14e8:	89 81       	ldd	r24, Y+1	; 0x01
    14ea:	9a 81       	ldd	r25, Y+2	; 0x02
    14ec:	00 97       	sbiw	r24, 0x00	; 0
    14ee:	11 f0       	breq	.+4      	; 0x14f4 <wait_ms+0x28>
    14f0:	81 e0       	ldi	r24, 0x01	; 1
    14f2:	8b 83       	std	Y+3, r24	; 0x03
    14f4:	89 81       	ldd	r24, Y+1	; 0x01
    14f6:	9a 81       	ldd	r25, Y+2	; 0x02
    14f8:	01 97       	sbiw	r24, 0x01	; 1
    14fa:	9a 83       	std	Y+2, r25	; 0x02
    14fc:	89 83       	std	Y+1, r24	; 0x01
    14fe:	8b 81       	ldd	r24, Y+3	; 0x03
    1500:	88 23       	and	r24, r24
    1502:	69 f7       	brne	.-38     	; 0x14de <wait_ms+0x12>
	
}
    1504:	0f 90       	pop	r0
    1506:	0f 90       	pop	r0
    1508:	0f 90       	pop	r0
    150a:	cf 91       	pop	r28
    150c:	df 91       	pop	r29
    150e:	08 95       	ret

00001510 <speedToDuty>:
#include <avr/io.h>
#include <actuator.h>
#include "motor.h"

uint8_t speedToDuty(int8_t speed, enum MotorAction *act)
{
    1510:	df 93       	push	r29
    1512:	cf 93       	push	r28
    1514:	00 d0       	rcall	.+0      	; 0x1516 <speedToDuty+0x6>
    1516:	00 d0       	rcall	.+0      	; 0x1518 <speedToDuty+0x8>
    1518:	00 d0       	rcall	.+0      	; 0x151a <speedToDuty+0xa>
    151a:	cd b7       	in	r28, 0x3d	; 61
    151c:	de b7       	in	r29, 0x3e	; 62
    151e:	8c 83       	std	Y+4, r24	; 0x04
    1520:	7e 83       	std	Y+6, r23	; 0x06
    1522:	6d 83       	std	Y+5, r22	; 0x05
	uint8_t tmp1;
	uint8_t tmp2;
	uint8_t duty;

	if( speed < 0 ) {
    1524:	8c 81       	ldd	r24, Y+4	; 0x04
    1526:	88 23       	and	r24, r24
    1528:	64 f4       	brge	.+24     	; 0x1542 <speedToDuty+0x32>
		tmp2 = -speed;
    152a:	8c 81       	ldd	r24, Y+4	; 0x04
    152c:	81 95       	neg	r24
    152e:	8a 83       	std	Y+2, r24	; 0x02
		*act ^= 0x03;
    1530:	ed 81       	ldd	r30, Y+5	; 0x05
    1532:	fe 81       	ldd	r31, Y+6	; 0x06
    1534:	90 81       	ld	r25, Z
    1536:	83 e0       	ldi	r24, 0x03	; 3
    1538:	89 27       	eor	r24, r25
    153a:	ed 81       	ldd	r30, Y+5	; 0x05
    153c:	fe 81       	ldd	r31, Y+6	; 0x06
    153e:	80 83       	st	Z, r24
    1540:	02 c0       	rjmp	.+4      	; 0x1546 <speedToDuty+0x36>
	} else tmp2 = speed;
    1542:	8c 81       	ldd	r24, Y+4	; 0x04
    1544:	8a 83       	std	Y+2, r24	; 0x02

	duty = tmp2 << 1;
    1546:	8a 81       	ldd	r24, Y+2	; 0x02
    1548:	88 0f       	add	r24, r24
    154a:	89 83       	std	Y+1, r24	; 0x01
	duty += tmp1 = tmp2 >> 1;
    154c:	8a 81       	ldd	r24, Y+2	; 0x02
    154e:	86 95       	lsr	r24
    1550:	8b 83       	std	Y+3, r24	; 0x03
    1552:	99 81       	ldd	r25, Y+1	; 0x01
    1554:	8b 81       	ldd	r24, Y+3	; 0x03
    1556:	89 0f       	add	r24, r25
    1558:	89 83       	std	Y+1, r24	; 0x01
	tmp2 = tmp1 >> 3;
    155a:	8b 81       	ldd	r24, Y+3	; 0x03
    155c:	86 95       	lsr	r24
    155e:	86 95       	lsr	r24
    1560:	86 95       	lsr	r24
    1562:	8a 83       	std	Y+2, r24	; 0x02
	tmp1 = tmp2 >> 1;
    1564:	8a 81       	ldd	r24, Y+2	; 0x02
    1566:	86 95       	lsr	r24
    1568:	8b 83       	std	Y+3, r24	; 0x03
	
	duty += tmp2 - ( ( tmp2 - tmp1 ) >> 1 );
    156a:	8a 81       	ldd	r24, Y+2	; 0x02
    156c:	28 2f       	mov	r18, r24
    156e:	30 e0       	ldi	r19, 0x00	; 0
    1570:	8b 81       	ldd	r24, Y+3	; 0x03
    1572:	88 2f       	mov	r24, r24
    1574:	90 e0       	ldi	r25, 0x00	; 0
    1576:	a9 01       	movw	r20, r18
    1578:	48 1b       	sub	r20, r24
    157a:	59 0b       	sbc	r21, r25
    157c:	ca 01       	movw	r24, r20
    157e:	95 95       	asr	r25
    1580:	87 95       	ror	r24
    1582:	98 2f       	mov	r25, r24
    1584:	8a 81       	ldd	r24, Y+2	; 0x02
    1586:	58 2f       	mov	r21, r24
    1588:	59 1b       	sub	r21, r25
    158a:	95 2f       	mov	r25, r21
    158c:	89 81       	ldd	r24, Y+1	; 0x01
    158e:	89 0f       	add	r24, r25
    1590:	89 83       	std	Y+1, r24	; 0x01

	return duty;
    1592:	89 81       	ldd	r24, Y+1	; 0x01

}
    1594:	26 96       	adiw	r28, 0x06	; 6
    1596:	0f b6       	in	r0, 0x3f	; 63
    1598:	f8 94       	cli
    159a:	de bf       	out	0x3e, r29	; 62
    159c:	0f be       	out	0x3f, r0	; 63
    159e:	cd bf       	out	0x3d, r28	; 61
    15a0:	cf 91       	pop	r28
    15a2:	df 91       	pop	r29
    15a4:	08 95       	ret

000015a6 <m0>:

void m0(enum MotorAction act, int8_t speed)
{
    15a6:	0f 93       	push	r16
    15a8:	1f 93       	push	r17
    15aa:	df 93       	push	r29
    15ac:	cf 93       	push	r28
    15ae:	00 d0       	rcall	.+0      	; 0x15b0 <m0+0xa>
    15b0:	cd b7       	in	r28, 0x3d	; 61
    15b2:	de b7       	in	r29, 0x3e	; 62
    15b4:	89 83       	std	Y+1, r24	; 0x01
    15b6:	6a 83       	std	Y+2, r22	; 0x02
	OCR0A = speedToDuty(speed,&act);
    15b8:	07 e4       	ldi	r16, 0x47	; 71
    15ba:	10 e0       	ldi	r17, 0x00	; 0
    15bc:	8a 81       	ldd	r24, Y+2	; 0x02
    15be:	9e 01       	movw	r18, r28
    15c0:	2f 5f       	subi	r18, 0xFF	; 255
    15c2:	3f 4f       	sbci	r19, 0xFF	; 255
    15c4:	b9 01       	movw	r22, r18
    15c6:	0e 94 88 0a 	call	0x1510	; 0x1510 <speedToDuty>
    15ca:	f8 01       	movw	r30, r16
    15cc:	80 83       	st	Z, r24
	PA.Port.Bit.B0 = PORT(act).Port.Bit.B0;
    15ce:	a2 e0       	ldi	r26, 0x02	; 2
    15d0:	b0 e0       	ldi	r27, 0x00	; 0
    15d2:	fe 01       	movw	r30, r28
    15d4:	31 96       	adiw	r30, 0x01	; 1
    15d6:	80 81       	ld	r24, Z
    15d8:	81 70       	andi	r24, 0x01	; 1
    15da:	98 2f       	mov	r25, r24
    15dc:	91 70       	andi	r25, 0x01	; 1
    15de:	8c 91       	ld	r24, X
    15e0:	8e 7f       	andi	r24, 0xFE	; 254
    15e2:	89 2b       	or	r24, r25
    15e4:	8c 93       	st	X, r24
	PA.Port.Bit.B0 = PORT(act).Port.Bit.B1;
    15e6:	a2 e0       	ldi	r26, 0x02	; 2
    15e8:	b0 e0       	ldi	r27, 0x00	; 0
    15ea:	fe 01       	movw	r30, r28
    15ec:	31 96       	adiw	r30, 0x01	; 1
    15ee:	80 81       	ld	r24, Z
    15f0:	86 95       	lsr	r24
    15f2:	81 70       	andi	r24, 0x01	; 1
    15f4:	98 2f       	mov	r25, r24
    15f6:	91 70       	andi	r25, 0x01	; 1
    15f8:	8c 91       	ld	r24, X
    15fa:	8e 7f       	andi	r24, 0xFE	; 254
    15fc:	89 2b       	or	r24, r25
    15fe:	8c 93       	st	X, r24
}
    1600:	0f 90       	pop	r0
    1602:	0f 90       	pop	r0
    1604:	cf 91       	pop	r28
    1606:	df 91       	pop	r29
    1608:	1f 91       	pop	r17
    160a:	0f 91       	pop	r16
    160c:	08 95       	ret

0000160e <m1>:

void m1(enum MotorAction act, int8_t speed)
{
    160e:	0f 93       	push	r16
    1610:	1f 93       	push	r17
    1612:	df 93       	push	r29
    1614:	cf 93       	push	r28
    1616:	00 d0       	rcall	.+0      	; 0x1618 <m1+0xa>
    1618:	cd b7       	in	r28, 0x3d	; 61
    161a:	de b7       	in	r29, 0x3e	; 62
    161c:	89 83       	std	Y+1, r24	; 0x01
    161e:	6a 83       	std	Y+2, r22	; 0x02
	OCR0A = speedToDuty(speed,&act);
    1620:	07 e4       	ldi	r16, 0x47	; 71
    1622:	10 e0       	ldi	r17, 0x00	; 0
    1624:	8a 81       	ldd	r24, Y+2	; 0x02
    1626:	9e 01       	movw	r18, r28
    1628:	2f 5f       	subi	r18, 0xFF	; 255
    162a:	3f 4f       	sbci	r19, 0xFF	; 255
    162c:	b9 01       	movw	r22, r18
    162e:	0e 94 88 0a 	call	0x1510	; 0x1510 <speedToDuty>
    1632:	f8 01       	movw	r30, r16
    1634:	80 83       	st	Z, r24
	PA.Port.Bit.B0 = PORT(act).Port.Bit.B0;
    1636:	a2 e0       	ldi	r26, 0x02	; 2
    1638:	b0 e0       	ldi	r27, 0x00	; 0
    163a:	fe 01       	movw	r30, r28
    163c:	31 96       	adiw	r30, 0x01	; 1
    163e:	80 81       	ld	r24, Z
    1640:	81 70       	andi	r24, 0x01	; 1
    1642:	98 2f       	mov	r25, r24
    1644:	91 70       	andi	r25, 0x01	; 1
    1646:	8c 91       	ld	r24, X
    1648:	8e 7f       	andi	r24, 0xFE	; 254
    164a:	89 2b       	or	r24, r25
    164c:	8c 93       	st	X, r24
	PA.Port.Bit.B0 = PORT(act).Port.Bit.B1;
    164e:	a2 e0       	ldi	r26, 0x02	; 2
    1650:	b0 e0       	ldi	r27, 0x00	; 0
    1652:	fe 01       	movw	r30, r28
    1654:	31 96       	adiw	r30, 0x01	; 1
    1656:	80 81       	ld	r24, Z
    1658:	86 95       	lsr	r24
    165a:	81 70       	andi	r24, 0x01	; 1
    165c:	98 2f       	mov	r25, r24
    165e:	91 70       	andi	r25, 0x01	; 1
    1660:	8c 91       	ld	r24, X
    1662:	8e 7f       	andi	r24, 0xFE	; 254
    1664:	89 2b       	or	r24, r25
    1666:	8c 93       	st	X, r24
}
    1668:	0f 90       	pop	r0
    166a:	0f 90       	pop	r0
    166c:	cf 91       	pop	r28
    166e:	df 91       	pop	r29
    1670:	1f 91       	pop	r17
    1672:	0f 91       	pop	r16
    1674:	08 95       	ret

00001676 <m2>:
void m2(enum MotorAction act, int8_t speed)
{
    1676:	0f 93       	push	r16
    1678:	1f 93       	push	r17
    167a:	df 93       	push	r29
    167c:	cf 93       	push	r28
    167e:	00 d0       	rcall	.+0      	; 0x1680 <m2+0xa>
    1680:	cd b7       	in	r28, 0x3d	; 61
    1682:	de b7       	in	r29, 0x3e	; 62
    1684:	89 83       	std	Y+1, r24	; 0x01
    1686:	6a 83       	std	Y+2, r22	; 0x02
	OCR0A = speedToDuty(speed,&act);
    1688:	07 e4       	ldi	r16, 0x47	; 71
    168a:	10 e0       	ldi	r17, 0x00	; 0
    168c:	8a 81       	ldd	r24, Y+2	; 0x02
    168e:	9e 01       	movw	r18, r28
    1690:	2f 5f       	subi	r18, 0xFF	; 255
    1692:	3f 4f       	sbci	r19, 0xFF	; 255
    1694:	b9 01       	movw	r22, r18
    1696:	0e 94 88 0a 	call	0x1510	; 0x1510 <speedToDuty>
    169a:	f8 01       	movw	r30, r16
    169c:	80 83       	st	Z, r24
	PA.Port.Bit.B0 = PORT(act).Port.Bit.B0;
    169e:	a2 e0       	ldi	r26, 0x02	; 2
    16a0:	b0 e0       	ldi	r27, 0x00	; 0
    16a2:	fe 01       	movw	r30, r28
    16a4:	31 96       	adiw	r30, 0x01	; 1
    16a6:	80 81       	ld	r24, Z
    16a8:	81 70       	andi	r24, 0x01	; 1
    16aa:	98 2f       	mov	r25, r24
    16ac:	91 70       	andi	r25, 0x01	; 1
    16ae:	8c 91       	ld	r24, X
    16b0:	8e 7f       	andi	r24, 0xFE	; 254
    16b2:	89 2b       	or	r24, r25
    16b4:	8c 93       	st	X, r24
	PA.Port.Bit.B0 = PORT(act).Port.Bit.B1;
    16b6:	a2 e0       	ldi	r26, 0x02	; 2
    16b8:	b0 e0       	ldi	r27, 0x00	; 0
    16ba:	fe 01       	movw	r30, r28
    16bc:	31 96       	adiw	r30, 0x01	; 1
    16be:	80 81       	ld	r24, Z
    16c0:	86 95       	lsr	r24
    16c2:	81 70       	andi	r24, 0x01	; 1
    16c4:	98 2f       	mov	r25, r24
    16c6:	91 70       	andi	r25, 0x01	; 1
    16c8:	8c 91       	ld	r24, X
    16ca:	8e 7f       	andi	r24, 0xFE	; 254
    16cc:	89 2b       	or	r24, r25
    16ce:	8c 93       	st	X, r24
}
    16d0:	0f 90       	pop	r0
    16d2:	0f 90       	pop	r0
    16d4:	cf 91       	pop	r28
    16d6:	df 91       	pop	r29
    16d8:	1f 91       	pop	r17
    16da:	0f 91       	pop	r16
    16dc:	08 95       	ret

000016de <m3>:
void m3(enum MotorAction act, int8_t speed)
{
    16de:	0f 93       	push	r16
    16e0:	1f 93       	push	r17
    16e2:	df 93       	push	r29
    16e4:	cf 93       	push	r28
    16e6:	00 d0       	rcall	.+0      	; 0x16e8 <m3+0xa>
    16e8:	cd b7       	in	r28, 0x3d	; 61
    16ea:	de b7       	in	r29, 0x3e	; 62
    16ec:	89 83       	std	Y+1, r24	; 0x01
    16ee:	6a 83       	std	Y+2, r22	; 0x02
	OCR0A = speedToDuty(speed,&act);
    16f0:	07 e4       	ldi	r16, 0x47	; 71
    16f2:	10 e0       	ldi	r17, 0x00	; 0
    16f4:	8a 81       	ldd	r24, Y+2	; 0x02
    16f6:	9e 01       	movw	r18, r28
    16f8:	2f 5f       	subi	r18, 0xFF	; 255
    16fa:	3f 4f       	sbci	r19, 0xFF	; 255
    16fc:	b9 01       	movw	r22, r18
    16fe:	0e 94 88 0a 	call	0x1510	; 0x1510 <speedToDuty>
    1702:	f8 01       	movw	r30, r16
    1704:	80 83       	st	Z, r24
	PA.Port.Bit.B0 = PORT(act).Port.Bit.B0;
    1706:	a2 e0       	ldi	r26, 0x02	; 2
    1708:	b0 e0       	ldi	r27, 0x00	; 0
    170a:	fe 01       	movw	r30, r28
    170c:	31 96       	adiw	r30, 0x01	; 1
    170e:	80 81       	ld	r24, Z
    1710:	81 70       	andi	r24, 0x01	; 1
    1712:	98 2f       	mov	r25, r24
    1714:	91 70       	andi	r25, 0x01	; 1
    1716:	8c 91       	ld	r24, X
    1718:	8e 7f       	andi	r24, 0xFE	; 254
    171a:	89 2b       	or	r24, r25
    171c:	8c 93       	st	X, r24
	PA.Port.Bit.B0 = PORT(act).Port.Bit.B1;
    171e:	a2 e0       	ldi	r26, 0x02	; 2
    1720:	b0 e0       	ldi	r27, 0x00	; 0
    1722:	fe 01       	movw	r30, r28
    1724:	31 96       	adiw	r30, 0x01	; 1
    1726:	80 81       	ld	r24, Z
    1728:	86 95       	lsr	r24
    172a:	81 70       	andi	r24, 0x01	; 1
    172c:	98 2f       	mov	r25, r24
    172e:	91 70       	andi	r25, 0x01	; 1
    1730:	8c 91       	ld	r24, X
    1732:	8e 7f       	andi	r24, 0xFE	; 254
    1734:	89 2b       	or	r24, r25
    1736:	8c 93       	st	X, r24
}
    1738:	0f 90       	pop	r0
    173a:	0f 90       	pop	r0
    173c:	cf 91       	pop	r28
    173e:	df 91       	pop	r29
    1740:	1f 91       	pop	r17
    1742:	0f 91       	pop	r16
    1744:	08 95       	ret

00001746 <m4>:
void m4(enum MotorAction act, int8_t speed)
{
    1746:	0f 93       	push	r16
    1748:	1f 93       	push	r17
    174a:	df 93       	push	r29
    174c:	cf 93       	push	r28
    174e:	00 d0       	rcall	.+0      	; 0x1750 <m4+0xa>
    1750:	cd b7       	in	r28, 0x3d	; 61
    1752:	de b7       	in	r29, 0x3e	; 62
    1754:	89 83       	std	Y+1, r24	; 0x01
    1756:	6a 83       	std	Y+2, r22	; 0x02
	OCR0A = speedToDuty(speed,&act);
    1758:	07 e4       	ldi	r16, 0x47	; 71
    175a:	10 e0       	ldi	r17, 0x00	; 0
    175c:	8a 81       	ldd	r24, Y+2	; 0x02
    175e:	9e 01       	movw	r18, r28
    1760:	2f 5f       	subi	r18, 0xFF	; 255
    1762:	3f 4f       	sbci	r19, 0xFF	; 255
    1764:	b9 01       	movw	r22, r18
    1766:	0e 94 88 0a 	call	0x1510	; 0x1510 <speedToDuty>
    176a:	f8 01       	movw	r30, r16
    176c:	80 83       	st	Z, r24
	PA.Port.Bit.B0 = PORT(act).Port.Bit.B0;
    176e:	a2 e0       	ldi	r26, 0x02	; 2
    1770:	b0 e0       	ldi	r27, 0x00	; 0
    1772:	fe 01       	movw	r30, r28
    1774:	31 96       	adiw	r30, 0x01	; 1
    1776:	80 81       	ld	r24, Z
    1778:	81 70       	andi	r24, 0x01	; 1
    177a:	98 2f       	mov	r25, r24
    177c:	91 70       	andi	r25, 0x01	; 1
    177e:	8c 91       	ld	r24, X
    1780:	8e 7f       	andi	r24, 0xFE	; 254
    1782:	89 2b       	or	r24, r25
    1784:	8c 93       	st	X, r24
	PA.Port.Bit.B0 = PORT(act).Port.Bit.B1;
    1786:	a2 e0       	ldi	r26, 0x02	; 2
    1788:	b0 e0       	ldi	r27, 0x00	; 0
    178a:	fe 01       	movw	r30, r28
    178c:	31 96       	adiw	r30, 0x01	; 1
    178e:	80 81       	ld	r24, Z
    1790:	86 95       	lsr	r24
    1792:	81 70       	andi	r24, 0x01	; 1
    1794:	98 2f       	mov	r25, r24
    1796:	91 70       	andi	r25, 0x01	; 1
    1798:	8c 91       	ld	r24, X
    179a:	8e 7f       	andi	r24, 0xFE	; 254
    179c:	89 2b       	or	r24, r25
    179e:	8c 93       	st	X, r24
}
    17a0:	0f 90       	pop	r0
    17a2:	0f 90       	pop	r0
    17a4:	cf 91       	pop	r28
    17a6:	df 91       	pop	r29
    17a8:	1f 91       	pop	r17
    17aa:	0f 91       	pop	r16
    17ac:	08 95       	ret

000017ae <getMotor>:
	{.drive = m3},
	{.drive = m4}
};

Motor *getMotor(enum MotorNumber no)
{
    17ae:	df 93       	push	r29
    17b0:	cf 93       	push	r28
    17b2:	0f 92       	push	r0
    17b4:	cd b7       	in	r28, 0x3d	; 61
    17b6:	de b7       	in	r29, 0x3e	; 62
    17b8:	89 83       	std	Y+1, r24	; 0x01
	return &motors[no];
    17ba:	89 81       	ldd	r24, Y+1	; 0x01
    17bc:	88 2f       	mov	r24, r24
    17be:	90 e0       	ldi	r25, 0x00	; 0
    17c0:	88 0f       	add	r24, r24
    17c2:	99 1f       	adc	r25, r25
    17c4:	8b 5a       	subi	r24, 0xAB	; 171
    17c6:	9c 4f       	sbci	r25, 0xFC	; 252
}
    17c8:	0f 90       	pop	r0
    17ca:	cf 91       	pop	r28
    17cc:	df 91       	pop	r29
    17ce:	08 95       	ret

000017d0 <a0>:
#include <avr/io.h>
#include <actuator.h>
#include "air_cylinder.h"

void a0(enum AirCylinderAction act) {
    17d0:	df 93       	push	r29
    17d2:	cf 93       	push	r28
    17d4:	0f 92       	push	r0
    17d6:	cd b7       	in	r28, 0x3d	; 61
    17d8:	de b7       	in	r29, 0x3e	; 62
    17da:	89 83       	std	Y+1, r24	; 0x01
	PA.Port.Bit.B0 = act;
    17dc:	e2 e0       	ldi	r30, 0x02	; 2
    17de:	f0 e0       	ldi	r31, 0x00	; 0
    17e0:	89 81       	ldd	r24, Y+1	; 0x01
    17e2:	81 70       	andi	r24, 0x01	; 1
    17e4:	98 2f       	mov	r25, r24
    17e6:	91 70       	andi	r25, 0x01	; 1
    17e8:	80 81       	ld	r24, Z
    17ea:	8e 7f       	andi	r24, 0xFE	; 254
    17ec:	89 2b       	or	r24, r25
    17ee:	80 83       	st	Z, r24
}
    17f0:	0f 90       	pop	r0
    17f2:	cf 91       	pop	r28
    17f4:	df 91       	pop	r29
    17f6:	08 95       	ret

000017f8 <a1>:


void a1(enum AirCylinderAction act) {
    17f8:	df 93       	push	r29
    17fa:	cf 93       	push	r28
    17fc:	0f 92       	push	r0
    17fe:	cd b7       	in	r28, 0x3d	; 61
    1800:	de b7       	in	r29, 0x3e	; 62
    1802:	89 83       	std	Y+1, r24	; 0x01
	PA.Port.Bit.B0 = act;
    1804:	e2 e0       	ldi	r30, 0x02	; 2
    1806:	f0 e0       	ldi	r31, 0x00	; 0
    1808:	89 81       	ldd	r24, Y+1	; 0x01
    180a:	81 70       	andi	r24, 0x01	; 1
    180c:	98 2f       	mov	r25, r24
    180e:	91 70       	andi	r25, 0x01	; 1
    1810:	80 81       	ld	r24, Z
    1812:	8e 7f       	andi	r24, 0xFE	; 254
    1814:	89 2b       	or	r24, r25
    1816:	80 83       	st	Z, r24
}
    1818:	0f 90       	pop	r0
    181a:	cf 91       	pop	r28
    181c:	df 91       	pop	r29
    181e:	08 95       	ret

00001820 <getAirCylinder>:
	{.drive = a0},
	{.drive = a1}
};

AirCylinder *getAirCylinder(enum AirCylinderNumber no)
{
    1820:	df 93       	push	r29
    1822:	cf 93       	push	r28
    1824:	0f 92       	push	r0
    1826:	cd b7       	in	r28, 0x3d	; 61
    1828:	de b7       	in	r29, 0x3e	; 62
    182a:	89 83       	std	Y+1, r24	; 0x01
	return &airCylinders[no];
    182c:	89 81       	ldd	r24, Y+1	; 0x01
    182e:	88 2f       	mov	r24, r24
    1830:	90 e0       	ldi	r25, 0x00	; 0
    1832:	88 0f       	add	r24, r24
    1834:	99 1f       	adc	r25, r25
    1836:	81 5a       	subi	r24, 0xA1	; 161
    1838:	9c 4f       	sbci	r25, 0xFC	; 252
}
    183a:	0f 90       	pop	r0
    183c:	cf 91       	pop	r28
    183e:	df 91       	pop	r29
    1840:	08 95       	ret

00001842 <_exit>:
    1842:	f8 94       	cli

00001844 <__stop_program>:
    1844:	ff cf       	rjmp	.-2      	; 0x1844 <__stop_program>
